***********************************************************************
*
*	CODE GENERATION LISTING FOR: IOOnMQTT
*	COMPILER VERSION: 3.0.0.0
*
***********************************************************************

**************************************************
	CODE GENERATOR SUBROUTINES
**************************************************

$$MOD:
005BA340  FB90 F3F1		sdiv r3, r0, r1
005BA344  4359     		mul r1, r1, r3
005BA346  EBC1 0000		rsb r0, r1, r0
005BA34A  4770     		bx lr

$$MOD_U:
005BA34C  FBB0 F3F1		udiv r3, r0, r1
005BA350  4359     		mul r1, r1, r3
005BA352  EBC1 0000		rsb r0, r1, r0
005BA356  4770     		bx lr

**************************************************
	List function block: MQTTClient
**************************************************

FUNCTION_BLOCK MQTTClient

	{ DE:"(eLLabNetworkLib_A500) Client for a MQTT server" }

        VAR_INPUT
Enable : BOOL;
SpyOn : BOOL;	{ DE:"Spy active" }
Publish : BOOL;	{ DE:"Publish command" }
Subscribe : BOOL;	{ DE:"Subscribe command" }
Server : @USINT;	{ DE:"Server URL or IP" }
Port : UINT;	{ DE:"Server port" }
Username : @USINT;	{ DE:"Username" }
Password : @USINT;	{ DE:"Password" }
ClientID : @USINT;	{ DE:"Client identifier string" }
KeepAlive : UINT;	{ DE:"Keep Alive time (S)" }
Flags : DWORD;	{ DE:"Protocol flags" }
QoS : USINT;	{ DE:"Quality of service" }
Topic : @USINT;	{ DE:"Topic name" }
Value : @USINT;	{ DE:"Topic value" }
VLength : UDINT;	{ DE:"Topic value length" }
TBufferRxD : @USINT;	{ DE:"Topic buffer received" }
TBLengthRxD : UDINT;	{ DE:"Topic buffer length received" }
VBufferRxD : @USINT;	{ DE:"Value buffer received" }
VBLengthRxD : UDINT;	{ DE:"Value buffer length received" }
	END_VAR

        VAR_OUTPUT
Connected : BOOL;	{ DE:"Connected to server" }
Fault : BOOL;	{ DE:"Execution fault" }
Published : BOOL;	{ DE:"Topic published (Pulse)" }
Subscribed : BOOL;	{ DE:"Topic subscribed (Pulse)" }
TopicRxD : BOOL;	{ DE:"Topic received (Pulse)" }
VLengthRxD : UINT;	{ DE:"Topic value length received" }
CTime : REAL;	{ DE:"Communication time (S)" }
	END_VAR

        VAR_EXTERNAL
	{G:"System_variables"}
SysActTaskID AT %MB0.64 : USINT;	{ DE:"System active task ID" }
	END_VAR

        VAR
AFPublish : ARRAY[ 0..1 ] OF BOOL;	{ DE:"Auxiliary flags (Publish)" }
AFSubscribe : ARRAY[ 0..1 ] OF BOOL;	{ DE:"Auxiliary flags (Subscribe)" }
BIDx : ARRAY[ 0..1 ] OF UINT;	{ DE:"Buffer index [Rx][Tx]" }
BSpy : @BYTE;	{ DE:"Buffer spy (Allocata con SysRMAlloc nel main)" }
CaseBk : USINT;	{ DE:"Case back" }
CaseNr : USINT;	{ DE:"Case number" }
ConnectOn : BOOL;	{ DE:"Connection in progress" }
ErrorNr : UDINT;	{ DE:"Error number" }
Fp : UDINT;	{ DE:"File pointer" }
i : UDINT;	{ DE:"Auxiliary variable" }
IPtr : @USINT;	{ DE:"Internal pointer" }
IsConnected : BOOL;	{ DE:"TCP client is connected" }
j : UDINT;	{ DE:"Auxiliary variable" }
PIDIDx : USINT;	{ DE:"Packet identifier index" }
PingOn : BOOL;	{ DE:"Ping in progress" }
PingTBf : UDINT;	{ DE:"Ping time buffer (uS)" }
PublishOn : BOOL;	{ DE:"Publish in progress" }
PublishPIDRx : ARRAY[ 0..7 ] OF UINT;	{ DE:"Publish packed ID (Received from broker)" }
PublishPIDTx : UINT;	{ DE:"Publish packed ID (Sent to broker)" }
RLength : UDINT;	{ DE:"Remaining length" }
RLSize : UINT;	{ DE:"Remaining length size" }
RxBuffer : ARRAY[ 0..63 ] OF BYTE;	{ DE:"Rx buffer" }
RxChrs : UINT;	{ DE:"Number of Rx characters" }
SubscribeOn : BOOL;	{ DE:"Subscribe in progress" }
SubscribePID : UINT;	{ DE:"Subscribe packet ID" }
TCPClient : SysTCPClient;	{ DE:"TCP client" }
TLength : UINT;	{ DE:"Topic length" }
TxBuffer : ARRAY[ 0..63 ] OF BYTE;
ConnectionTBf : UDINT;	{ DE:"Connection time buffer (uS)" }
CTimeBf : ARRAY[ 0..1 ] OF UDINT;	{ DE:"Cases time buffer (uS) [Rx][Tx]" }
SpyData : ARRAY[ 0..7 ] OF BYTE;
	END_VAR

END_FUNCTION_BLOCK

005BA358  E92D 4040		stmdb sp!, { r6, lr }
005BA35C  462E     		mov r6, r5

005BA35E  2000     		mov r0, #0 ; 0
005BA360  F8DF 78A4		ldr r7, [pc, #+2212] ; 0x151
005BA364  55F0     		strb r0, [r6, +r7]

005BA366  2000     		mov r0, #0 ; 0
005BA368  F8DF 78A0		ldr r7, [pc, #+2208] ; 0x152
005BA36C  55F0     		strb r0, [r6, +r7]

005BA36E  2000     		mov r0, #0 ; 0
005BA370  F8DF 789C		ldr r7, [pc, #+2204] ; 0x153
005BA374  55F0     		strb r0, [r6, +r7]

005BA376  F8DF 7850		ldr r7, [pc, #+2128] ; 0xB2
005BA37A  5DF0     		ldrb r0, [r6, +r7]
005BA37C  F8DF 7804		ldr r7, [pc, #+2052] ; 0x20
005BA380  55F0     		strb r0, [r6, +r7]

005BA382  E92D 0021		stmdb sp!, { r0, r5 }
005BA386  F8DF 7818		ldr r7, [pc, #+2072] ; 0x90
005BA38A  19F0     		add r0, r6, r7
005BA38C  F8DF 4894		ldr r4, [pc, #+2196] ; 0x48EB99
005BA390  F044 0401		orr r4, r4, #1
005BA394  47A0     		blx r4
005BA396  E8BD 0021		ldmia sp!, { r0, r5 }

005BA39A  F8DF 7834		ldr r7, [pc, #+2100] ; 0xB4
005BA39E  59F0     		ldr r0, [r6, +r7]
005BA3A0  F8DF 77D4		ldr r7, [pc, #+2004] ; 0x14
005BA3A4  51F0     		str r0, [r6, +r7]

005BA3A6  F8DF 7838		ldr r7, [pc, #+2104] ; 0x112
005BA3AA  5DF0     		ldrb r0, [r6, +r7]

005BA3AC  7837     		ldrb r7, [r6]
005BA3AE  42B8     		cmp r0, r7
005BA3B0  BF08 2000		eqmov r0, #0
005BA3B4  BF18 2001		nemov r0, #1

005BA3B8  2800     		cmp r0, #0
005BA3BA  D00A     		beq #20 ; 0x005BA3D2


005BA3BE  F8DF 7820		ldr r7, [pc, #+2080] ; 0x112
005BA3C2  5DF0     		ldrb r0, [r6, +r7]

005BA3C4  2800     		cmp r0, #0
005BA3C6  D004     		beq #8 ; 0x005BA3D2


005BA3CA  2001     		mov r0, #1 ; 1
005BA3CC  F8DF 778C		ldr r7, [pc, #+1932] ; 0x1
005BA3D0  55F0     		strb r0, [r6, +r7]

005BA3D2  F8DF 7810		ldr r7, [pc, #+2064] ; 0x113
005BA3D6  5DF0     		ldrb r0, [r6, +r7]

005BA3D8  F8DF 7784		ldr r7, [pc, #+1924] ; 0x2
005BA3DC  5DF7     		ldrb r7, [r6, +r7]
005BA3DE  42B8     		cmp r0, r7
005BA3E0  BF08 2000		eqmov r0, #0
005BA3E4  BF18 2001		nemov r0, #1

005BA3E8  2800     		cmp r0, #0
005BA3EA  D00A     		beq #20 ; 0x005BA402


005BA3EE  F8DF 77F4		ldr r7, [pc, #+2036] ; 0x113
005BA3F2  5DF0     		ldrb r0, [r6, +r7]

005BA3F4  2800     		cmp r0, #0
005BA3F6  D004     		beq #8 ; 0x005BA402


005BA3FA  2001     		mov r0, #1 ; 1
005BA3FC  F8DF 7764		ldr r7, [pc, #+1892] ; 0x3
005BA400  55F0     		strb r0, [r6, +r7]

005BA402  F8DF 77DC		ldr r7, [pc, #+2012] ; 0x112
005BA406  5DF0     		ldrb r0, [r6, +r7]
005BA408  7030     		strb r0, [r6]

005BA40A  F8DF 77D8		ldr r7, [pc, #+2008] ; 0x113
005BA40E  5DF0     		ldrb r0, [r6, +r7]
005BA410  F8DF 774C		ldr r7, [pc, #+1868] ; 0x2
005BA414  55F0     		strb r0, [r6, +r7]

005BA416  F8DF 776C		ldr r7, [pc, #+1900] ; 0x20
005BA41A  5DF0     		ldrb r0, [r6, +r7]

005BA41C  F8DF 77A8		ldr r7, [pc, #+1960] ; 0xB2
005BA420  5DF7     		ldrb r7, [r6, +r7]
005BA422  4038     		and r0, r0, r7

005BA424  2800     		cmp r0, #0
005BA426  BF08 2001		eqmov r0, #1
005BA42A  BF18 2000		nemov r0, #0

005BA42E  2800     		cmp r0, #0
005BA430  D008     		beq #16 ; 0x005BA444


005BA434  2000     		mov r0, #0 ; 0
005BA436  F8DF 7724		ldr r7, [pc, #+1828] ; 0x1
005BA43A  55F0     		strb r0, [r6, +r7]

005BA43C  2000     		mov r0, #0 ; 0
005BA43E  F8DF 7724		ldr r7, [pc, #+1828] ; 0x3
005BA442  55F0     		strb r0, [r6, +r7]

005BA444  F8DF 7794		ldr r7, [pc, #+1940] ; 0x111
005BA448  5DF0     		ldrb r0, [r6, +r7]

005BA44A  2800     		cmp r0, #0
005BA44C  D014     		beq #40 ; 0x005BA478


005BA450  2000     		mov r0, #0 ; 0

005BA452  2300     		mov r3, #0 ; 0
005BA454  2200     		mov r2, #0 ; 0
005BA456  2100     		mov r1, #0 ; 0
005BA458  4600     		mov r0, r0
005BA45A  F8DF 47D8		ldr r4, [pc, #+2008] ; 0x48FE35
005BA45E  F044 0401		orr r4, r4, #1
005BA462  47A0     		blx r4

005BA464  2800     		cmp r0, #0
005BA466  BF08 2001		eqmov r0, #1
005BA46A  BF18 2000		nemov r0, #0

005BA46E  2800     		cmp r0, #0
005BA470  D002     		beq #4 ; 0x005BA478


005BA474  F003 B83A		b #12404 ; 0x005BD4EC


005BA478  F8DF 76EC		ldr r7, [pc, #+1772] ; 0x8
005BA47C  59F0     		ldr r0, [r6, +r7]

005BA47E  2700     		mov r7, #0 ; 0
005BA480  42B8     		cmp r0, r7
005BA482  BF18 2000		nemov r0, #0
005BA486  BF08 2001		eqmov r0, #1

005BA48A  F8DF 7750		ldr r7, [pc, #+1872] ; 0x111
005BA48E  5DF7     		ldrb r7, [r6, +r7]
005BA490  4038     		and r0, r0, r7

005BA492  2800     		cmp r0, #0
005BA494  D014     		beq #40 ; 0x005BA4C0


005BA498  4630     		mov r0, r6
005BA49A  F8DF 76CC		ldr r7, [pc, #+1740] ; 0x8
005BA49E  19C0     		add r0, r0, r7

005BA4A0  F8DF 7774		ldr r7, [pc, #+1908] ; 0x15C
005BA4A4  51F0     		str r0, [r6, +r7]

005BA4A6  2080     		mov r0, #128 ; 128

005BA4A8  F8DF 776C		ldr r7, [pc, #+1900] ; 0x15C
005BA4AC  59F1     		ldr r1, [r6, +r7]
005BA4AE  4600     		mov r0, r0
005BA4B0  F8DF 4790		ldr r4, [pc, #+1936] ; 0x4905B1
005BA4B4  F044 0401		orr r4, r4, #1
005BA4B8  47A0     		blx r4

005BA4BA  F8DF 76C0		ldr r7, [pc, #+1728] ; 0x18
005BA4BE  51F0     		str r0, [r6, +r7]

005BA4C0  F8DF 76A4		ldr r7, [pc, #+1700] ; 0x8
005BA4C4  59F0     		ldr r0, [r6, +r7]

005BA4C6  2700     		mov r7, #0 ; 0
005BA4C8  42B8     		cmp r0, r7
005BA4CA  BF08 2000		eqmov r0, #0
005BA4CE  BF18 2001		nemov r0, #1

005BA4D2  B082     		sub sp, sp, #8
005BA4D4  F8CD 0000		str r0, [sp]
005BA4D8  F8DF 7700		ldr r7, [pc, #+1792] ; 0x111
005BA4DC  5DF0     		ldrb r0, [r6, +r7]

005BA4DE  2800     		cmp r0, #0
005BA4E0  BF08 2001		eqmov r0, #1
005BA4E4  BF18 2000		nemov r0, #0

005BA4E8  4607     		mov r7, r0
005BA4EA  F8DD 0000		ldr r0, [sp]
005BA4EE  B002     		add sp, sp, #8
005BA4F0  4038     		and r0, r0, r7

005BA4F2  2800     		cmp r0, #0
005BA4F4  D00D     		beq #26 ; 0x005BA512


005BA4F8  4630     		mov r0, r6
005BA4FA  F8DF 766C		ldr r7, [pc, #+1644] ; 0x8
005BA4FE  19C0     		add r0, r0, r7

005BA500  4600     		mov r0, r0
005BA502  F8DF 4744		ldr r4, [pc, #+1860] ; 0x4905F5
005BA506  F044 0401		orr r4, r4, #1
005BA50A  47A0     		blx r4

005BA50C  F8DF 766C		ldr r7, [pc, #+1644] ; 0x18
005BA510  51F0     		str r0, [r6, +r7]

005BA512  F8DF 7700		ldr r7, [pc, #+1792] ; 0x154
005BA516  5DF0     		ldrb r0, [r6, +r7]

005BA518  2800     		cmp r0, #0
005BA51A  D03F     		beq #126 ; 0x005BA59C


005BA51E  2000     		mov r0, #0 ; 0
005BA520  F8DF 76F0		ldr r7, [pc, #+1776] ; 0x154
005BA524  55F0     		strb r0, [r6, +r7]

005BA526  F8DF 7640		ldr r7, [pc, #+1600] ; 0x8
005BA52A  59F0     		ldr r0, [r6, +r7]

005BA52C  2700     		mov r7, #0 ; 0
005BA52E  42B8     		cmp r0, r7
005BA530  BF08 2000		eqmov r0, #0
005BA534  BF18 2001		nemov r0, #1

005BA538  2800     		cmp r0, #0
005BA53A  D02F     		beq #94 ; 0x005BA59C


005BA53E  F8DF 7628		ldr r7, [pc, #+1576] ; 0x8
005BA542  59F0     		ldr r0, [r6, +r7]

005BA544  B082     		sub sp, sp, #8
005BA546  F8DF 76B8		ldr r7, [pc, #+1720] ; 0x140
005BA54A  59F7     		ldr r7, [r6, +r7]
005BA54C  F8CD 7000		str r7, [sp]
005BA550  2332     		mov r3, #50 ; 50
005BA552  F8DF 7708		ldr r7, [pc, #+1800] ; 0x5BA084
005BA556  463A     		mov r2, r7
005BA558  2180     		mov r1, #128 ; 128
005BA55A  4600     		mov r0, r0
005BA55C  F8DF 46CC		ldr r4, [pc, #+1740] ; 0x48F96D
005BA560  F044 0401		orr r4, r4, #1
005BA564  47A0     		blx r4
005BA566  B002     		add sp, sp, #8

005BA568  F8DF 7610		ldr r7, [pc, #+1552] ; 0x18
005BA56C  51F0     		str r0, [r6, +r7]

005BA56E  F8DF 06F0		ldr r0, [pc, #+1776] ; 0x5BA090

005BA572  F8DF 76A4		ldr r7, [pc, #+1700] ; 0x15C
005BA576  51F0     		str r0, [r6, +r7]

005BA578  2001     		mov r0, #1 ; 1

005BA57A  F8DF 75EC		ldr r7, [pc, #+1516] ; 0x8
005BA57E  59F3     		ldr r3, [r6, +r7]
005BA580  F8DF 7694		ldr r7, [pc, #+1684] ; 0x15C
005BA584  59F2     		ldr r2, [r6, +r7]
005BA586  F44F 4180		mov r1, #16384 ; 16384
005BA58A  4600     		mov r0, r0
005BA58C  F8DF 46A4		ldr r4, [pc, #+1700] ; 0x48FE35
005BA590  F044 0401		orr r4, r4, #1
005BA594  47A0     		blx r4

005BA596  F8DF 75E4		ldr r7, [pc, #+1508] ; 0x18
005BA59A  51F0     		str r0, [r6, +r7]

005BA59C  F8DF 75D4		ldr r7, [pc, #+1492] ; 0x10
005BA5A0  59F0     		ldr r0, [r6, +r7]

005BA5A2  2800     		cmp r0, #0
005BA5A4  BF08 2000		eqmov r0, #0
005BA5A8  BF18 2001		nemov r0, #1

005BA5AC  2800     		cmp r0, #0
005BA5AE  F000 80A8		beq #336 ; 0x005BA702


005BA5B2  F8DF 75B4		ldr r7, [pc, #+1460] ; 0x8
005BA5B6  59F0     		ldr r0, [r6, +r7]

005BA5B8  2700     		mov r7, #0 ; 0
005BA5BA  42B8     		cmp r0, r7
005BA5BC  BF08 2000		eqmov r0, #0
005BA5C0  BF18 2001		nemov r0, #1

005BA5C4  2800     		cmp r0, #0
005BA5C6  D074     		beq #232 ; 0x005BA6B2


005BA5CA  4630     		mov r0, r6
005BA5CC  F8DF 75A4		ldr r7, [pc, #+1444] ; 0x10
005BA5D0  19C0     		add r0, r0, r7

005BA5D2  F8DF 7644		ldr r7, [pc, #+1604] ; 0x15C
005BA5D6  51F0     		str r0, [r6, +r7]

005BA5D8  F8DF 758C		ldr r7, [pc, #+1420] ; 0x8
005BA5DC  59F0     		ldr r0, [r6, +r7]

005BA5DE  B082     		sub sp, sp, #8
005BA5E0  F8DF 7634		ldr r7, [pc, #+1588] ; 0x15C
005BA5E4  59F7     		ldr r7, [r6, +r7]
005BA5E6  F8CD 7000		str r7, [sp]
005BA5EA  232A     		mov r3, #42 ; 42
005BA5EC  F8DF 7674		ldr r7, [pc, #+1652] ; 0x5BA094
005BA5F0  463A     		mov r2, r7
005BA5F2  2180     		mov r1, #128 ; 128
005BA5F4  4600     		mov r0, r0
005BA5F6  F8DF 4634		ldr r4, [pc, #+1588] ; 0x48F96D
005BA5FA  F044 0401		orr r4, r4, #1
005BA5FE  47A0     		blx r4
005BA600  B002     		add sp, sp, #8

005BA602  F8DF 7578		ldr r7, [pc, #+1400] ; 0x18
005BA606  51F0     		str r0, [r6, +r7]

005BA608  4630     		mov r0, r6
005BA60A  F8DF 7564		ldr r7, [pc, #+1380] ; 0xD
005BA60E  19C0     		add r0, r0, r7

005BA610  F8DF 7604		ldr r7, [pc, #+1540] ; 0x15C
005BA614  51F0     		str r0, [r6, +r7]

005BA616  F8DF 7550		ldr r7, [pc, #+1360] ; 0x8
005BA61A  59F0     		ldr r0, [r6, +r7]

005BA61C  B082     		sub sp, sp, #8
005BA61E  F8DF 75F8		ldr r7, [pc, #+1528] ; 0x15C
005BA622  59F7     		ldr r7, [r6, +r7]
005BA624  F8CD 7000		str r7, [sp]
005BA628  2316     		mov r3, #22 ; 22
005BA62A  F8DF 763C		ldr r7, [pc, #+1596] ; 0x5BA0A0
005BA62E  463A     		mov r2, r7
005BA630  2180     		mov r1, #128 ; 128
005BA632  4600     		mov r0, r0
005BA634  F8DF 45F8		ldr r4, [pc, #+1528] ; 0x48FB19
005BA638  F044 0401		orr r4, r4, #1
005BA63C  47A0     		blx r4
005BA63E  B002     		add sp, sp, #8

005BA640  F8DF 7538		ldr r7, [pc, #+1336] ; 0x18
005BA644  51F0     		str r0, [r6, +r7]

005BA646  4630     		mov r0, r6
005BA648  F8DF 7520		ldr r7, [pc, #+1312] ; 0xC
005BA64C  19C0     		add r0, r0, r7

005BA64E  F8DF 75C8		ldr r7, [pc, #+1480] ; 0x15C
005BA652  51F0     		str r0, [r6, +r7]

005BA654  F8DF 7510		ldr r7, [pc, #+1296] ; 0x8
005BA658  59F0     		ldr r0, [r6, +r7]

005BA65A  B082     		sub sp, sp, #8
005BA65C  F8DF 75B8		ldr r7, [pc, #+1464] ; 0x15C
005BA660  59F7     		ldr r7, [r6, +r7]
005BA662  F8CD 7000		str r7, [sp]
005BA666  2316     		mov r3, #22 ; 22
005BA668  F8DF 7600		ldr r7, [pc, #+1536] ; 0x5BA0B0
005BA66C  463A     		mov r2, r7
005BA66E  2180     		mov r1, #128 ; 128
005BA670  4600     		mov r0, r0
005BA672  F8DF 45BC		ldr r4, [pc, #+1468] ; 0x48FB19
005BA676  F044 0401		orr r4, r4, #1
005BA67A  47A0     		blx r4
005BA67C  B002     		add sp, sp, #8

005BA67E  F8DF 74FC		ldr r7, [pc, #+1276] ; 0x18
005BA682  51F0     		str r0, [r6, +r7]

005BA684  F8DF 05E8		ldr r0, [pc, #+1512] ; 0x5BA0C0

005BA688  F8DF 758C		ldr r7, [pc, #+1420] ; 0x15C
005BA68C  51F0     		str r0, [r6, +r7]

005BA68E  2001     		mov r0, #1 ; 1

005BA690  F8DF 74D4		ldr r7, [pc, #+1236] ; 0x8
005BA694  59F3     		ldr r3, [r6, +r7]
005BA696  F8DF 7580		ldr r7, [pc, #+1408] ; 0x15C
005BA69A  59F2     		ldr r2, [r6, +r7]
005BA69C  F04F 4180		mov r1, #1073741824 ; 1073741824
005BA6A0  4600     		mov r0, r0
005BA6A2  F8DF 4590		ldr r4, [pc, #+1424] ; 0x48FE35
005BA6A6  F044 0401		orr r4, r4, #1
005BA6AA  47A0     		blx r4

005BA6AC  F8DF 74CC		ldr r7, [pc, #+1228] ; 0x18
005BA6B0  51F0     		str r0, [r6, +r7]

005BA6B2  2000     		mov r0, #0 ; 0
005BA6B4  F8DF 754C		ldr r7, [pc, #+1356] ; 0x150
005BA6B8  55F0     		strb r0, [r6, +r7]

005BA6BA  2000     		mov r0, #0 ; 0
005BA6BC  F8DF 74E4		ldr r7, [pc, #+1252] ; 0x98
005BA6C0  55F0     		strb r0, [r6, +r7]

005BA6C2  2001     		mov r0, #1 ; 1

005BA6C4  4600     		mov r0, r0
005BA6C6  F8DF 4574		ldr r4, [pc, #+1396] ; 0x490519
005BA6CA  F044 0401		orr r4, r4, #1
005BA6CE  47A0     		blx r4

005BA6D0  F8DF 7500		ldr r7, [pc, #+1280] ; 0xFC
005BA6D4  51F0     		str r0, [r6, +r7]

005BA6D6  F8DF 749C		ldr r7, [pc, #+1180] ; 0x10
005BA6DA  59F0     		ldr r0, [r6, +r7]

005BA6DC  4600     		mov r0, r0
005BA6DE  F8DF 4560		ldr r4, [pc, #+1376] ; 0x490561
005BA6E2  F044 0401		orr r4, r4, #1
005BA6E6  47A0     		blx r4

005BA6E8  F8DF 7490		ldr r7, [pc, #+1168] ; 0x18
005BA6EC  51F0     		str r0, [r6, +r7]

005BA6EE  2001     		mov r0, #1 ; 1
005BA6F0  F8DF 7514		ldr r7, [pc, #+1300] ; 0x151
005BA6F4  55F0     		strb r0, [r6, +r7]

005BA6F6  2000     		mov r0, #0 ; 0
005BA6F8  F8DF 7478		ldr r7, [pc, #+1144] ; 0x10
005BA6FC  51F0     		str r0, [r6, +r7]

005BA6FE  F002 BEF5		b #11754 ; 0x005BD4EC


005BA702  F8DF 759C		ldr r7, [pc, #+1436] ; 0x20412E8C
005BA706  7838     		ldrb r0, [r7]

005BA708  2801     		cmp r0, #1
005BA70A  BF08 2000		eqmov r0, #0
005BA70E  BF18 2001		nemov r0, #1

005BA712  2800     		cmp r0, #0
005BA714  D008     		beq #16 ; 0x005BA728


005BA718  F8DF 7558		ldr r7, [pc, #+1368] ; 0x5BA0C4
005BA71C  6838     		ldr r0, [r7]
005BA71E  F8DF 7454		ldr r7, [pc, #+1108] ; 0x10
005BA722  51F0     		str r0, [r6, +r7]

005BA724  F002 BEE2		b #11716 ; 0x005BD4EC


005BA728  F8DF 74C8		ldr r7, [pc, #+1224] ; 0x120
005BA72C  59F0     		ldr r0, [r6, +r7]

005BA72E  2700     		mov r7, #0 ; 0
005BA730  42B8     		cmp r0, r7
005BA732  BF08 2000		eqmov r0, #0
005BA736  BF18 2001		nemov r0, #1

005BA73A  B082     		sub sp, sp, #8
005BA73C  F8CD 0000		str r0, [sp]
005BA740  F8DF 74AC		ldr r7, [pc, #+1196] ; 0x11C
005BA744  59F0     		ldr r0, [r6, +r7]

005BA746  2700     		mov r7, #0 ; 0
005BA748  42B8     		cmp r0, r7
005BA74A  BF08 2000		eqmov r0, #0
005BA74E  BF18 2001		nemov r0, #1

005BA752  4607     		mov r7, r0
005BA754  F8DD 0000		ldr r0, [sp]
005BA758  B002     		add sp, sp, #8
005BA75A  4338     		orr r0, r0, r7

005BA75C  2800     		cmp r0, #0
005BA75E  D035     		beq #106 ; 0x005BA7CC


005BA762  F8DF 7514		ldr r7, [pc, #+1300] ; 0x5BA0C8
005BA766  8838     		ldrh r0, [r7]

005BA768  F8DF 7510		ldr r7, [pc, #+1296] ; 0x5BA0CC
005BA76C  6839     		ldr r1, [r7]
005BA76E  4600     		mov r0, r0
005BA770  F8DF 44B4		ldr r4, [pc, #+1204] ; 0x48F451
005BA774  F044 0401		orr r4, r4, #1
005BA778  47A0     		blx r4

005BA77A  F8DF 74A0		ldr r7, [pc, #+1184] ; 0x160
005BA77E  51F0     		str r0, [r6, +r7]

005BA780  2000     		mov r0, #0 ; 0

005BA782  4600     		mov r0, r0
005BA784  F8DF 44B0		ldr r4, [pc, #+1200] ; 0x490509
005BA788  F044 0401		orr r4, r4, #1
005BA78C  47A0     		blx r4

005BA78E  F8DF 7490		ldr r7, [pc, #+1168] ; 0x164
005BA792  51F0     		str r0, [r6, +r7]

005BA794  F8DF 7484		ldr r7, [pc, #+1156] ; 0x160
005BA798  59F0     		ldr r0, [r6, +r7]

005BA79A  B082     		sub sp, sp, #8
005BA79C  F8CD 1000		str r1, [sp]
005BA7A0  F8DF 747C		ldr r7, [pc, #+1148] ; 0x164
005BA7A4  59F1     		ldr r1, [r6, +r7]
005BA7A6  F8DF 44B0		ldr r4, [pc, #+1200] ; 0x4A4611
005BA7AA  F044 0401		orr r4, r4, #1
005BA7AE  47A0     		blx r4
005BA7B0  F8DD 1000		ldr r1, [sp]
005BA7B4  B002     		add sp, sp, #8

005BA7B6  2800     		cmp r0, #0
005BA7B8  D008     		beq #16 ; 0x005BA7CC


005BA7BC  F8DF 74C0		ldr r7, [pc, #+1216] ; 0x5BA0D0
005BA7C0  6838     		ldr r0, [r7]
005BA7C2  F8DF 73B0		ldr r7, [pc, #+944] ; 0x10
005BA7C6  51F0     		str r0, [r6, +r7]

005BA7C8  F002 BE90		b #11552 ; 0x005BD4EC


005BA7CC  F8DF 7408		ldr r7, [pc, #+1032] ; 0x110
005BA7D0  5DF0     		ldrb r0, [r6, +r7]

005BA7D2  2800     		cmp r0, #0
005BA7D4  BF08 2001		eqmov r0, #1
005BA7D8  BF18 2000		nemov r0, #0

005BA7DC  2800     		cmp r0, #0
005BA7DE  D014     		beq #40 ; 0x005BA80A


005BA7E2  2000     		mov r0, #0 ; 0
005BA7E4  F8DF 741C		ldr r7, [pc, #+1052] ; 0x150
005BA7E8  55F0     		strb r0, [r6, +r7]

005BA7EA  2000     		mov r0, #0 ; 0
005BA7EC  F8DF 73B4		ldr r7, [pc, #+948] ; 0x98
005BA7F0  55F0     		strb r0, [r6, +r7]

005BA7F2  2001     		mov r0, #1 ; 1

005BA7F4  4600     		mov r0, r0
005BA7F6  F8DF 4444		ldr r4, [pc, #+1092] ; 0x490519
005BA7FA  F044 0401		orr r4, r4, #1
005BA7FE  47A0     		blx r4

005BA800  F8DF 73D0		ldr r7, [pc, #+976] ; 0xFC
005BA804  51F0     		str r0, [r6, +r7]

005BA806  F002 BE71		b #11490 ; 0x005BD4EC


005BA80A  F8DF 7398		ldr r7, [pc, #+920] ; 0x98
005BA80E  5DF0     		ldrb r0, [r6, +r7]

005BA810  2800     		cmp r0, #0
005BA812  BF08 2001		eqmov r0, #1
005BA816  BF18 2000		nemov r0, #0

005BA81A  2800     		cmp r0, #0
005BA81C  F000 8183		beq #774 ; 0x005BAB26


005BA820  2001     		mov r0, #1 ; 1

005BA822  4600     		mov r0, r0
005BA824  F8DF 4414		ldr r4, [pc, #+1044] ; 0x490519
005BA828  F044 0401		orr r4, r4, #1
005BA82C  47A0     		blx r4

005BA82E  F8DF 73A4		ldr r7, [pc, #+932] ; 0xFC
005BA832  59F7     		ldr r7, [r6, +r7]
005BA834  1BC0     		sub r0, r0, r7

005BA836  F8DF 744C		ldr r7, [pc, #+1100] ; 0x5BA0D4
005BA83A  683F     		ldr r7, [r7]
005BA83C  42B8     		cmp r0, r7
005BA83E  BF28 2000		hsmov r0, #0
005BA842  BF38 2001		lomov r0, #1

005BA846  2800     		cmp r0, #0
005BA848  D002     		beq #4 ; 0x005BA850


005BA84C  F002 BE4E		b #11420 ; 0x005BD4EC


005BA850  2001     		mov r0, #1 ; 1
005BA852  F8DF 7350		ldr r7, [pc, #+848] ; 0x98
005BA856  55F0     		strb r0, [r6, +r7]

005BA858  F8DF 738C		ldr r7, [pc, #+908] ; 0x114
005BA85C  59F0     		ldr r0, [r6, +r7]
005BA85E  F8DF 7348		ldr r7, [pc, #+840] ; 0x9C
005BA862  51F0     		str r0, [r6, +r7]

005BA864  F8DF 7384		ldr r7, [pc, #+900] ; 0x118
005BA868  5BF0     		ldrh r0, [r6, +r7]
005BA86A  F8DF 7340		ldr r7, [pc, #+832] ; 0xA0
005BA86E  53F0     		strh r0, [r6, +r7]

005BA870  F8DF 0414		ldr r0, [pc, #+1044] ; 0x5BA0D8

005BA874  F8DF 7338		ldr r7, [pc, #+824] ; 0xA4
005BA878  51F0     		str r0, [r6, +r7]

005BA87A  2000     		mov r0, #0 ; 0
005BA87C  F8DF 7334		ldr r7, [pc, #+820] ; 0xA8
005BA880  53F0     		strh r0, [r6, +r7]

005BA882  2032     		mov r0, #50 ; 50
005BA884  F8DF 7330		ldr r7, [pc, #+816] ; 0xAA
005BA888  53F0     		strh r0, [r6, +r7]

005BA88A  F8DF 7370		ldr r7, [pc, #+880] ; 0x128
005BA88E  5BF0     		ldrh r0, [r6, +r7]
005BA890  F8DF 7328		ldr r7, [pc, #+808] ; 0xAC
005BA894  53F0     		strh r0, [r6, +r7]

005BA896  2040     		mov r0, #64 ; 64

005BA898  F8DF 7324		ldr r7, [pc, #+804] ; 0xAE
005BA89C  53F0     		strh r0, [r6, +r7]

005BA89E  2040     		mov r0, #64 ; 64

005BA8A0  F8DF 7320		ldr r7, [pc, #+800] ; 0xB0
005BA8A4  53F0     		strh r0, [r6, +r7]

005BA8A6  F8DF 7350		ldr r7, [pc, #+848] ; 0x124
005BA8AA  59F0     		ldr r0, [r6, +r7]

005BA8AC  2700     		mov r7, #0 ; 0
005BA8AE  42B8     		cmp r0, r7
005BA8B0  BF18 2000		nemov r0, #0
005BA8B4  BF08 2001		eqmov r0, #1

005BA8B8  2800     		cmp r0, #0
005BA8BA  D008     		beq #16 ; 0x005BA8CE


005BA8BE  F8DF 73CC		ldr r7, [pc, #+972] ; 0x5BA0E0
005BA8C2  6838     		ldr r0, [r7]
005BA8C4  F8DF 72AC		ldr r7, [pc, #+684] ; 0x10
005BA8C8  51F0     		str r0, [r6, +r7]

005BA8CA  F002 BE0F		b #11294 ; 0x005BD4EC


005BA8CE  F8DF 7328		ldr r7, [pc, #+808] ; 0x124
005BA8D2  59F0     		ldr r0, [r6, +r7]

005BA8D4  4600     		mov r0, r0
005BA8D6  F8DF 4374		ldr r4, [pc, #+884] ; 0x4909F1
005BA8DA  F044 0401		orr r4, r4, #1
005BA8DE  47A0     		blx r4

005BA8E0  F8DF 72A4		ldr r7, [pc, #+676] ; 0x24
005BA8E4  51F0     		str r0, [r6, +r7]

005BA8E6  F8DF 72A0		ldr r7, [pc, #+672] ; 0x24
005BA8EA  59F0     		ldr r0, [r6, +r7]

005BA8EC  2817     		cmp r0, #23
005BA8EE  BF98 2000		lsmov r0, #0
005BA8F2  BF88 2001		himov r0, #1

005BA8F6  B082     		sub sp, sp, #8
005BA8F8  F8CD 0000		str r0, [sp]
005BA8FC  F8DF 7288		ldr r7, [pc, #+648] ; 0x24
005BA900  59F0     		ldr r0, [r6, +r7]

005BA902  2801     		cmp r0, #1
005BA904  BF28 2000		hsmov r0, #0
005BA908  BF38 2001		lomov r0, #1

005BA90C  4607     		mov r7, r0
005BA90E  F8DD 0000		ldr r0, [sp]
005BA912  B002     		add sp, sp, #8
005BA914  4338     		orr r0, r0, r7

005BA916  2800     		cmp r0, #0
005BA918  D008     		beq #16 ; 0x005BA92C


005BA91C  F8DF 7370		ldr r7, [pc, #+880] ; 0x5BA0E4
005BA920  6838     		ldr r0, [r7]
005BA922  F8DF 7250		ldr r7, [pc, #+592] ; 0x10
005BA926  51F0     		str r0, [r6, +r7]

005BA928  F002 BDE0		b #11200 ; 0x005BD4EC


005BA92C  F8DF 72C8		ldr r7, [pc, #+712] ; 0x124
005BA930  59F0     		ldr r0, [r6, +r7]
005BA932  F8DF 724C		ldr r7, [pc, #+588] ; 0x1C
005BA936  51F0     		str r0, [r6, +r7]

005BA938  2000     		mov r0, #0 ; 0

005BA93A  F8DF 7240		ldr r7, [pc, #+576] ; 0x18
005BA93E  51F0     		str r0, [r6, +r7]

005BA940  F8DF 7238		ldr r7, [pc, #+568] ; 0x18
005BA944  59F0     		ldr r0, [r6, +r7]

005BA946  B082     		sub sp, sp, #8
005BA948  F8CD 0000		str r0, [sp]
005BA94C  F8DF 7238		ldr r7, [pc, #+568] ; 0x24
005BA950  59F0     		ldr r0, [r6, +r7]

005BA952  1E40     		sub r0, r0, #1

005BA954  4607     		mov r7, r0
005BA956  F8DD 0000		ldr r0, [sp]
005BA95A  B002     		add sp, sp, #8
005BA95C  42B8     		cmp r0, r7
005BA95E  BF98 2000		lsmov r0, #0
005BA962  BF88 2001		himov r0, #1

005BA966  2800     		cmp r0, #0
005BA968  F040 8089		bne #274 ; 0x005BAA7E


005BA96C  F8DF 7210		ldr r7, [pc, #+528] ; 0x1C
005BA970  F856 C007		ldr r12, [r6, +r7]
005BA974  F89C 0000		ldrb r0, [r12]

005BA978  287A     		cmp r0, #122
005BA97A  BFC8 2000		gtmov r0, #0
005BA97E  BFD8 2001		lemov r0, #1

005BA982  B082     		sub sp, sp, #8
005BA984  F8CD 0000		str r0, [sp]
005BA988  F8DF 71F4		ldr r7, [pc, #+500] ; 0x1C
005BA98C  F856 C007		ldr r12, [r6, +r7]
005BA990  F89C 0000		ldrb r0, [r12]

005BA994  2861     		cmp r0, #97
005BA996  BFB8 2000		ltmov r0, #0
005BA99A  BFA8 2001		gemov r0, #1

005BA99E  4607     		mov r7, r0
005BA9A0  F8DD 0000		ldr r0, [sp]
005BA9A4  B002     		add sp, sp, #8
005BA9A6  4038     		and r0, r0, r7

005BA9A8  B082     		sub sp, sp, #8
005BA9AA  F8CD 0000		str r0, [sp]
005BA9AE  F8DF 71D0		ldr r7, [pc, #+464] ; 0x1C
005BA9B2  F856 C007		ldr r12, [r6, +r7]
005BA9B6  F89C 0000		ldrb r0, [r12]

005BA9BA  285A     		cmp r0, #90
005BA9BC  BFC8 2000		gtmov r0, #0
005BA9C0  BFD8 2001		lemov r0, #1

005BA9C4  B082     		sub sp, sp, #8
005BA9C6  F8CD 0000		str r0, [sp]
005BA9CA  F8DF 71B4		ldr r7, [pc, #+436] ; 0x1C
005BA9CE  F856 C007		ldr r12, [r6, +r7]
005BA9D2  F89C 0000		ldrb r0, [r12]

005BA9D6  2841     		cmp r0, #65
005BA9D8  BFB8 2000		ltmov r0, #0
005BA9DC  BFA8 2001		gemov r0, #1

005BA9E0  4607     		mov r7, r0
005BA9E2  F8DD 0000		ldr r0, [sp]
005BA9E6  B002     		add sp, sp, #8
005BA9E8  4038     		and r0, r0, r7

005BA9EA  B082     		sub sp, sp, #8
005BA9EC  F8CD 0000		str r0, [sp]
005BA9F0  F8DF 718C		ldr r7, [pc, #+396] ; 0x1C
005BA9F4  F856 C007		ldr r12, [r6, +r7]
005BA9F8  F89C 0000		ldrb r0, [r12]

005BA9FC  2839     		cmp r0, #57
005BA9FE  BFC8 2000		gtmov r0, #0
005BAA02  BFD8 2001		lemov r0, #1

005BAA06  B082     		sub sp, sp, #8
005BAA08  F8CD 0000		str r0, [sp]
005BAA0C  F8DF 7170		ldr r7, [pc, #+368] ; 0x1C
005BAA10  F856 C007		ldr r12, [r6, +r7]
005BAA14  F89C 0000		ldrb r0, [r12]

005BAA18  2830     		cmp r0, #48
005BAA1A  BFB8 2000		ltmov r0, #0
005BAA1E  BFA8 2001		gemov r0, #1

005BAA22  4607     		mov r7, r0
005BAA24  F8DD 0000		ldr r0, [sp]
005BAA28  B002     		add sp, sp, #8
005BAA2A  4038     		and r0, r0, r7

005BAA2C  4607     		mov r7, r0
005BAA2E  F8DD 0000		ldr r0, [sp]
005BAA32  B002     		add sp, sp, #8
005BAA34  4338     		orr r0, r0, r7

005BAA36  4607     		mov r7, r0
005BAA38  F8DD 0000		ldr r0, [sp]
005BAA3C  B002     		add sp, sp, #8
005BAA3E  4338     		orr r0, r0, r7

005BAA40  2800     		cmp r0, #0
005BAA42  BF08 2001		eqmov r0, #1
005BAA46  BF18 2000		nemov r0, #0

005BAA4A  2800     		cmp r0, #0
005BAA4C  D008     		beq #16 ; 0x005BAA60


005BAA50  F8DF 7240		ldr r7, [pc, #+576] ; 0x5BA0E8
005BAA54  6838     		ldr r0, [r7]
005BAA56  F8DF 711C		ldr r7, [pc, #+284] ; 0x10
005BAA5A  51F0     		str r0, [r6, +r7]

005BAA5C  F002 BD46		b #10892 ; 0x005BD4EC


005BAA60  F8DF 711C		ldr r7, [pc, #+284] ; 0x1C
005BAA64  59F0     		ldr r0, [r6, +r7]

005BAA66  1C40     		add r0, r0, #1

005BAA68  F8DF 7114		ldr r7, [pc, #+276] ; 0x1C
005BAA6C  51F0     		str r0, [r6, +r7]

005BAA6E  F8DF 710C		ldr r7, [pc, #+268] ; 0x18
005BAA72  59F0     		ldr r0, [r6, +r7]

005BAA74  1C40     		add r0, r0, #1

005BAA76  F8DF 7104		ldr r7, [pc, #+260] ; 0x18
005BAA7A  51F0     		str r0, [r6, +r7]

005BAA7C  E760     		b #-320 ; 0x005BA940

005BAA7E  2001     		mov r0, #1 ; 1

005BAA80  4600     		mov r0, r0
005BAA82  F8DF 41B4		ldr r4, [pc, #+436] ; 0x490509
005BAA86  F044 0401		orr r4, r4, #1
005BAA8A  47A0     		blx r4

005BAA8C  F8DF 7208		ldr r7, [pc, #+520] ; 0x5BA0EC
005BAA90  683F     		ldr r7, [r7]
005BAA92  B082     		sub sp, sp, #8
005BAA94  F8CD 1000		str r1, [sp]
005BAA98  4639     		mov r1, r7
005BAA9A  F8DF 41B8		ldr r4, [pc, #+440] ; 0x4A4571
005BAA9E  F044 0401		orr r4, r4, #1
005BAAA2  47A0     		blx r4
005BAAA4  F8DD 1000		ldr r1, [sp]
005BAAA8  B002     		add sp, sp, #8

005BAAAA  F8DF 41A4		ldr r4, [pc, #+420] ; 0x4A4529
005BAAAE  F044 0401		orr r4, r4, #1
005BAAB2  47A0     		blx r4

005BAAB4  F8DF 70DC		ldr r7, [pc, #+220] ; 0x42
005BAAB8  53F0     		strh r0, [r6, +r7]

005BAABA  2001     		mov r0, #1 ; 1

005BAABC  4600     		mov r0, r0
005BAABE  F8DF 4178		ldr r4, [pc, #+376] ; 0x490509
005BAAC2  F044 0401		orr r4, r4, #1
005BAAC6  47A0     		blx r4

005BAAC8  F8DF 71CC		ldr r7, [pc, #+460] ; 0x5BA0EC
005BAACC  683F     		ldr r7, [r7]
005BAACE  B082     		sub sp, sp, #8
005BAAD0  F8CD 1000		str r1, [sp]
005BAAD4  4639     		mov r1, r7
005BAAD6  F8DF 417C		ldr r4, [pc, #+380] ; 0x4A4571
005BAADA  F044 0401		orr r4, r4, #1
005BAADE  47A0     		blx r4
005BAAE0  F8DD 1000		ldr r1, [sp]
005BAAE4  B002     		add sp, sp, #8

005BAAE6  F8DF 4168		ldr r4, [pc, #+360] ; 0x4A4529
005BAAEA  F044 0401		orr r4, r4, #1
005BAAEE  47A0     		blx r4

005BAAF0  F8DF 70A8		ldr r7, [pc, #+168] ; 0x8E
005BAAF4  53F0     		strh r0, [r6, +r7]

005BAAF6  2000     		mov r0, #0 ; 0
005BAAF8  F8DF 7090		ldr r7, [pc, #+144] ; 0x28
005BAAFC  55F0     		strb r0, [r6, +r7]

005BAAFE  2000     		mov r0, #0 ; 0
005BAB00  F8DF 7094		ldr r7, [pc, #+148] ; 0x8A
005BAB04  53F0     		strh r0, [r6, +r7]

005BAB06  2000     		mov r0, #0 ; 0
005BAB08  F8DF 7064		ldr r7, [pc, #+100] ; 0xD
005BAB0C  55F0     		strb r0, [r6, +r7]

005BAB0E  2001     		mov r0, #1 ; 1

005BAB10  4600     		mov r0, r0
005BAB12  F8DF 4128		ldr r4, [pc, #+296] ; 0x490519
005BAB16  F044 0401		orr r4, r4, #1
005BAB1A  47A0     		blx r4

005BAB1C  F8DF 7070		ldr r7, [pc, #+112] ; 0x2C
005BAB20  51F0     		str r0, [r6, +r7]

005BAB22  F002 BCE3		b #10694 ; 0x005BD4EC


005BAB26  F8DF 70A4		ldr r7, [pc, #+164] ; 0xB3
005BAB2A  5DF0     		ldrb r0, [r6, +r7]

005BAB2C  2800     		cmp r0, #0
005BAB2E  D008     		beq #16 ; 0x005BAB42


005BAB32  F8DF 7168		ldr r7, [pc, #+360] ; 0x5BA0F0
005BAB36  6838     		ldr r0, [r7]
005BAB38  F8DF 7038		ldr r7, [pc, #+56] ; 0x10
005BAB3C  51F0     		str r0, [r6, +r7]

005BAB3E  F002 BCD5		b #10666 ; 0x005BD4EC


005BAB42  F8DF 7084		ldr r7, [pc, #+132] ; 0xB2
005BAB46  5DF0     		ldrb r0, [r6, +r7]

005BAB48  2800     		cmp r0, #0
005BAB4A  BF08 2001		eqmov r0, #1
005BAB4E  BF18 2000		nemov r0, #0

005BAB52  2800     		cmp r0, #0
005BAB54  F000 80B4		beq #360 ; 0x005BACC0


005BAB58  E0A4     		b #328

005BAB5C  00000001		; 0x00000001
005BAB60  00000002		; 0x00000002
005BAB64  00000003		; 0x00000003
005BAB68  00000008		; 0x00000008
005BAB6C  0000000C		; 0x0000000C
005BAB70  0000000D		; 0x0000000D
005BAB74  00000010		; 0x00000010
005BAB78  00000014		; 0x00000014
005BAB7C  00000018		; 0x00000018
005BAB80  0000001C		; 0x0000001C
005BAB84  00000020		; 0x00000020
005BAB88  00000024		; 0x00000024
005BAB8C  00000028		; 0x00000028
005BAB90  0000002C		; 0x0000002C
005BAB94  00000042		; 0x00000042
005BAB98  0000008A		; 0x0000008A
005BAB9C  0000008E		; 0x0000008E
005BABA0  00000090		; 0x00000090
005BABA4  00000098		; 0x00000098
005BABA8  0000009C		; 0x0000009C
005BABAC  000000A0		; 0x000000A0
005BABB0  000000A4		; 0x000000A4
005BABB4  000000A8		; 0x000000A8
005BABB8  000000AA		; 0x000000AA
005BABBC  000000AC		; 0x000000AC
005BABC0  000000AE		; 0x000000AE
005BABC4  000000B0		; 0x000000B0
005BABC8  000000B2		; 0x000000B2
005BABCC  000000B3		; 0x000000B3
005BABD0  000000B4		; 0x000000B4
005BABD4  000000FC		; 0x000000FC
005BABD8  00000110		; 0x00000110
005BABDC  00000111		; 0x00000111
005BABE0  00000112		; 0x00000112
005BABE4  00000113		; 0x00000113
005BABE8  00000114		; 0x00000114
005BABEC  00000118		; 0x00000118
005BABF0  0000011C		; 0x0000011C
005BABF4  00000120		; 0x00000120
005BABF8  00000124		; 0x00000124
005BABFC  00000128		; 0x00000128
005BAC00  00000140		; 0x00000140
005BAC04  00000150		; 0x00000150
005BAC08  00000151		; 0x00000151
005BAC0C  00000152		; 0x00000152
005BAC10  00000153		; 0x00000153
005BAC14  00000154		; 0x00000154
005BAC18  0000015C		; 0x0000015C
005BAC1C  00000160		; 0x00000160
005BAC20  00000164		; 0x00000164
005BAC24  0048EB99		; 0x0048EB99
005BAC28  0048F451		; 0x0048F451
005BAC2C  0048F96D		; 0x0048F96D
005BAC30  0048FB19		; 0x0048FB19
005BAC34  0048FE35		; 0x0048FE35
005BAC38  00490509		; 0x00490509
005BAC3C  00490519		; 0x00490519
005BAC40  00490561		; 0x00490561
005BAC44  004905B1		; 0x004905B1
005BAC48  004905F5		; 0x004905F5
005BAC4C  004909F1		; 0x004909F1
005BAC50  004A4529		; 0x004A4529
005BAC54  004A4571		; 0x004A4571
005BAC58  004A4611		; 0x004A4611
005BAC5C  005BA084		; 0x005BA084
005BAC60  005BA090		; 0x005BA090
005BAC64  005BA094		; 0x005BA094
005BAC68  005BA0A0		; 0x005BA0A0
005BAC6C  005BA0B0		; 0x005BA0B0
005BAC70  005BA0C0		; 0x005BA0C0
005BAC74  005BA0C4		; 0x005BA0C4
005BAC78  005BA0C8		; 0x005BA0C8
005BAC7C  005BA0CC		; 0x005BA0CC
005BAC80  005BA0D0		; 0x005BA0D0
005BAC84  005BA0D4		; 0x005BA0D4
005BAC88  005BA0D8		; 0x005BA0D8
005BAC8C  005BA0E0		; 0x005BA0E0
005BAC90  005BA0E4		; 0x005BA0E4
005BAC94  005BA0E8		; 0x005BA0E8
005BAC98  005BA0EC		; 0x005BA0EC
005BAC9C  005BA0F0		; 0x005BA0F0
005BACA0  20412E8C		; 0x20412E8C

005BACA4  F85F 7124		ldr r7, [pc, #-292] ; 0x20
005BACA8  5DF0     		ldrb r0, [r6, +r7]

005BACAA  2800     		cmp r0, #0
005BACAC  D006     		beq #12 ; 0x005BACBC


005BACB0  F8DF 7864		ldr r7, [pc, #+2148] ; 0x5BA0F4
005BACB4  6838     		ldr r0, [r7]
005BACB6  F85F 7144		ldr r7, [pc, #-324] ; 0x10
005BACBA  51F0     		str r0, [r6, +r7]

005BACBC  F002 BC16		b #10284 ; 0x005BD4EC


005BACC0  F85F 714C		ldr r7, [pc, #-332] ; 0x14
005BACC4  59F0     		ldr r0, [r6, +r7]

005BACC6  4600     		mov r0, r0
005BACC8  F8DF 4848		ldr r4, [pc, #+2120] ; 0x490C65
005BACCC  F044 0401		orr r4, r4, #1
005BACD0  47A0     		blx r4

005BACD2  F85F 7158		ldr r7, [pc, #-344] ; 0x18
005BACD6  51F0     		str r0, [r6, +r7]

005BACD8  F85F 7160		ldr r7, [pc, #-352] ; 0x18
005BACDC  59F0     		ldr r0, [r6, +r7]

005BACDE  2800     		cmp r0, #0
005BACE0  BF08 2000		eqmov r0, #0
005BACE4  BF18 2001		nemov r0, #1

005BACE8  2800     		cmp r0, #0
005BACEA  F000 809D		beq #314 ; 0x005BAE28


005BACEE  F85F 7158		ldr r7, [pc, #-344] ; 0x8A
005BACF2  5BF5     		ldrh r5, [r6, +r7]
005BACF4  F8DF 77C4		ldr r7, [pc, #+1988] ; 0x4A
005BACF8  EB07 0705		add r7, r7, r5, lsl #0
005BACFC  19F0     		add r0, r6, r7

005BACFE  F85F 7180		ldr r7, [pc, #-384] ; 0x1C
005BAD02  51F0     		str r0, [r6, +r7]

005BAD04  2040     		mov r0, #64 ; 64

005BAD06  F85F 7170		ldr r7, [pc, #-368] ; 0x8A
005BAD0A  5BF7     		ldrh r7, [r6, +r7]
005BAD0C  1BC0     		sub r0, r0, r7

005BAD0E  F85F 7188		ldr r7, [pc, #-392] ; 0x24
005BAD12  51F0     		str r0, [r6, +r7]

005BAD14  F85F 7190		ldr r7, [pc, #-400] ; 0x24
005BAD18  59F0     		ldr r0, [r6, +r7]

005BAD1A  F85F 71A0		ldr r7, [pc, #-416] ; 0x18
005BAD1E  59F7     		ldr r7, [r6, +r7]
005BAD20  42B8     		cmp r0, r7
005BAD22  BF98 2000		lsmov r0, #0
005BAD26  BF88 2001		himov r0, #1

005BAD2A  2800     		cmp r0, #0
005BAD2C  D006     		beq #12 ; 0x005BAD3C


005BAD30  F85F 71B8		ldr r7, [pc, #-440] ; 0x18
005BAD34  59F0     		ldr r0, [r6, +r7]
005BAD36  F85F 71B0		ldr r7, [pc, #-432] ; 0x24
005BAD3A  51F0     		str r0, [r6, +r7]

005BAD3C  F85F 71B8		ldr r7, [pc, #-440] ; 0x24
005BAD40  59F0     		ldr r0, [r6, +r7]

005BAD42  F8DF 77A4		ldr r7, [pc, #+1956] ; 0x168
005BAD46  53F0     		strh r0, [r6, +r7]

005BAD48  F85F 71CC		ldr r7, [pc, #-460] ; 0x1C
005BAD4C  59F0     		ldr r0, [r6, +r7]

005BAD4E  F85F 71D8		ldr r7, [pc, #-472] ; 0x14
005BAD52  59F3     		ldr r3, [r6, +r7]
005BAD54  2201     		mov r2, #1 ; 1
005BAD56  F8DF 7790		ldr r7, [pc, #+1936] ; 0x168
005BAD5A  5FF1     		ldrsh r1, [r6, +r7]
005BAD5C  4600     		mov r0, r0
005BAD5E  F8DF 47B0		ldr r4, [pc, #+1968] ; 0x490B9D
005BAD62  F044 0401		orr r4, r4, #1
005BAD66  47A0     		blx r4

005BAD68  F85F 71F0		ldr r7, [pc, #-496] ; 0x18
005BAD6C  51F0     		str r0, [r6, +r7]

005BAD6E  F85F 71E8		ldr r7, [pc, #-488] ; 0x24
005BAD72  59F0     		ldr r0, [r6, +r7]

005BAD74  F85F 71E0		ldr r7, [pc, #-480] ; 0x8A
005BAD78  5BF7     		ldrh r7, [r6, +r7]
005BAD7A  19C0     		add r0, r0, r7

005BAD7C  F85F 71E8		ldr r7, [pc, #-488] ; 0x8A
005BAD80  53F0     		strh r0, [r6, +r7]

005BAD82  F85F 721C		ldr r7, [pc, #-540] ; 0x8
005BAD86  59F0     		ldr r0, [r6, +r7]

005BAD88  2700     		mov r7, #0 ; 0
005BAD8A  42B8     		cmp r0, r7
005BAD8C  BF08 2000		eqmov r0, #0
005BAD90  BF18 2001		nemov r0, #1

005BAD94  B082     		sub sp, sp, #8
005BAD96  F8CD 0000		str r0, [sp]
005BAD9A  F85F 7214		ldr r7, [pc, #-532] ; 0x24
005BAD9E  59F0     		ldr r0, [r6, +r7]

005BADA0  2800     		cmp r0, #0
005BADA2  BF08 2000		eqmov r0, #0
005BADA6  BF18 2001		nemov r0, #1

005BADAA  4607     		mov r7, r0
005BADAC  F8DD 0000		ldr r0, [sp]
005BADB0  B002     		add sp, sp, #8
005BADB2  4038     		and r0, r0, r7

005BADB4  2800     		cmp r0, #0
005BADB6  D037     		beq #110 ; 0x005BAE28


005BADBA  F85F 7234		ldr r7, [pc, #-564] ; 0x24
005BADBE  59F0     		ldr r0, [r6, +r7]

005BADC0  283F     		cmp r0, #63
005BADC2  BF98 2000		lsmov r0, #0
005BADC6  BF88 2001		himov r0, #1

005BADCA  2800     		cmp r0, #0
005BADCC  D004     		beq #8 ; 0x005BADD8


005BADD0  203F     		mov r0, #63 ; 63
005BADD2  F85F 724C		ldr r7, [pc, #-588] ; 0x24
005BADD6  51F0     		str r0, [r6, +r7]

005BADD8  2064     		mov r0, #100 ; 100

005BADDA  F85F 7254		ldr r7, [pc, #-596] ; 0x24
005BADDE  59F7     		ldr r7, [r6, +r7]
005BADE0  19C0     		add r0, r0, r7

005BADE2  F8DF 7708		ldr r7, [pc, #+1800] ; 0x16C
005BADE6  51F0     		str r0, [r6, +r7]

005BADE8  F8DF 7700		ldr r7, [pc, #+1792] ; 0x16C
005BADEC  59F0     		ldr r0, [r6, +r7]

005BADEE  F8DF 7700		ldr r7, [pc, #+1792] ; 0x170
005BADF2  55F0     		strb r0, [r6, +r7]

005BADF4  F8DF 0724		ldr r0, [pc, #+1828] ; 0x5BA0F8

005BADF8  F85F 71E4		ldr r7, [pc, #-484] ; 0x15C
005BADFC  51F0     		str r0, [r6, +r7]

005BADFE  F8DF 76F0		ldr r7, [pc, #+1776] ; 0x170
005BAE02  5DF0     		ldrb r0, [r6, +r7]

005BAE04  F85F 7288		ldr r7, [pc, #-648] ; 0x1C
005BAE08  59F3     		ldr r3, [r6, +r7]
005BAE0A  F85F 71F4		ldr r7, [pc, #-500] ; 0x15C
005BAE0E  59F2     		ldr r2, [r6, +r7]
005BAE10  2101     		mov r1, #1 ; 1
005BAE12  4600     		mov r0, r0
005BAE14  F85F 41E4		ldr r4, [pc, #-484] ; 0x48FE35
005BAE18  F044 0401		orr r4, r4, #1
005BAE1C  47A0     		blx r4

005BAE1E  F85F 72A4		ldr r7, [pc, #-676] ; 0x18
005BAE22  51F0     		str r0, [r6, +r7]

005BAE24  F002 BB62		b #9924 ; 0x005BD4EC


005BAE28  F85F 7294		ldr r7, [pc, #-660] ; 0x8A
005BAE2C  5BF0     		ldrh r0, [r6, +r7]

005BAE2E  2800     		cmp r0, #0
005BAE30  BF18 2000		nemov r0, #0
005BAE34  BF08 2001		eqmov r0, #1

005BAE38  2800     		cmp r0, #0
005BAE3A  D00A     		beq #20 ; 0x005BAE52


005BAE3E  2001     		mov r0, #1 ; 1

005BAE40  4600     		mov r0, r0
005BAE42  F85F 4208		ldr r4, [pc, #-520] ; 0x490519
005BAE46  F044 0401		orr r4, r4, #1
005BAE4A  47A0     		blx r4

005BAE4C  F8DF 7688		ldr r7, [pc, #+1672] ; 0x100
005BAE50  51F0     		str r0, [r6, +r7]

005BAE52  2001     		mov r0, #1 ; 1

005BAE54  4600     		mov r0, r0
005BAE56  F85F 421C		ldr r4, [pc, #-540] ; 0x490519
005BAE5A  F044 0401		orr r4, r4, #1
005BAE5E  47A0     		blx r4

005BAE60  F8DF 7674		ldr r7, [pc, #+1652] ; 0x100
005BAE64  59F7     		ldr r7, [r6, +r7]
005BAE66  1BC0     		sub r0, r0, r7

005BAE68  F8DF 76B4		ldr r7, [pc, #+1716] ; 0x5BA0FC
005BAE6C  683F     		ldr r7, [r7]
005BAE6E  42B8     		cmp r0, r7
005BAE70  BF98 2000		lsmov r0, #0
005BAE74  BF88 2001		himov r0, #1

005BAE78  2800     		cmp r0, #0
005BAE7A  D008     		beq #16 ; 0x005BAE8E


005BAE7E  F8DF 76A4		ldr r7, [pc, #+1700] ; 0x5BA100
005BAE82  6838     		ldr r0, [r7]
005BAE84  F85F 7314		ldr r7, [pc, #-788] ; 0x10
005BAE88  51F0     		str r0, [r6, +r7]

005BAE8A  F002 BB2F		b #9822 ; 0x005BD4EC


005BAE8E  2000     		mov r0, #0 ; 0
005BAE90  F8DF 7614		ldr r7, [pc, #+1556] ; 0x4
005BAE94  53F0     		strh r0, [r6, +r7]

005BAE96  F85F 7300		ldr r7, [pc, #-768] ; 0x8A
005BAE9A  5BF0     		ldrh r0, [r6, +r7]

005BAE9C  2800     		cmp r0, #0
005BAE9E  BF08 2000		eqmov r0, #0
005BAEA2  BF18 2001		nemov r0, #1

005BAEA6  2800     		cmp r0, #0
005BAEA8  F000 84D3		beq #2470 ; 0x005BB852


005BAEAC  F8DF 760C		ldr r7, [pc, #+1548] ; 0x4A
005BAEB0  5DF0     		ldrb r0, [r6, +r7]

005BAEB2  2820     		cmp r0, #32
005BAEB4  BF18 2000		nemov r0, #0
005BAEB8  BF08 2001		eqmov r0, #1

005BAEBC  2800     		cmp r0, #0
005BAEBE  D123     		bne #70 ; 0x005BAF08


005BAEC2  F8DF 75F8		ldr r7, [pc, #+1528] ; 0x4A
005BAEC6  5DF0     		ldrb r0, [r6, +r7]

005BAEC8  2840     		cmp r0, #64
005BAECA  BF18 2000		nemov r0, #0
005BAECE  BF08 2001		eqmov r0, #1

005BAED2  2800     		cmp r0, #0
005BAED4  D17B     		bne #246 ; 0x005BAFCE


005BAED8  F8DF 75E0		ldr r7, [pc, #+1504] ; 0x4A
005BAEDC  5DF0     		ldrb r0, [r6, +r7]

005BAEDE  2890     		cmp r0, #144
005BAEE0  BF18 2000		nemov r0, #0
005BAEE4  BF08 2001		eqmov r0, #1

005BAEE8  2800     		cmp r0, #0
005BAEEA  F040 80C8		bne #400 ; 0x005BB07E


005BAEEE  F8DF 75CC		ldr r7, [pc, #+1484] ; 0x4A
005BAEF2  5DF0     		ldrb r0, [r6, +r7]

005BAEF4  28D0     		cmp r0, #208
005BAEF6  BF18 2000		nemov r0, #0
005BAEFA  BF08 2001		eqmov r0, #1

005BAEFE  2800     		cmp r0, #0
005BAF00  F040 812B		bne #598 ; 0x005BB15A


005BAF04  E164     		b #712 ; 0x005BB1D0


005BAF08  F85F 7374		ldr r7, [pc, #-884] ; 0x8A
005BAF0C  5BF0     		ldrh r0, [r6, +r7]

005BAF0E  2804     		cmp r0, #4
005BAF10  BFB8 2000		ltmov r0, #0
005BAF14  BFA8 2001		gemov r0, #1

005BAF18  2800     		cmp r0, #0
005BAF1A  D056     		beq #172 ; 0x005BAFCA


005BAF1E  F8DF 758C		ldr r7, [pc, #+1420] ; 0xE
005BAF22  5DF0     		ldrb r0, [r6, +r7]

005BAF24  2800     		cmp r0, #0
005BAF26  BF08 2001		eqmov r0, #1
005BAF2A  BF18 2000		nemov r0, #0

005BAF2E  2800     		cmp r0, #0
005BAF30  D008     		beq #16 ; 0x005BAF44


005BAF34  F8DF 75F0		ldr r7, [pc, #+1520] ; 0x5BA104
005BAF38  6838     		ldr r0, [r7]
005BAF3A  F85F 73C8		ldr r7, [pc, #-968] ; 0x10
005BAF3E  51F0     		str r0, [r6, +r7]

005BAF40  F002 BAD4		b #9640 ; 0x005BD4EC


005BAF44  F8DF 7578		ldr r7, [pc, #+1400] ; 0x4B
005BAF48  5DF0     		ldrb r0, [r6, +r7]

005BAF4A  2802     		cmp r0, #2
005BAF4C  BF08 2000		eqmov r0, #0
005BAF50  BF18 2001		nemov r0, #1

005BAF54  2800     		cmp r0, #0
005BAF56  D008     		beq #16 ; 0x005BAF6A


005BAF5A  F8DF 75D0		ldr r7, [pc, #+1488] ; 0x5BA108
005BAF5E  6838     		ldr r0, [r7]
005BAF60  F85F 73F0		ldr r7, [pc, #-1008] ; 0x10
005BAF64  51F0     		str r0, [r6, +r7]

005BAF66  F002 BAC1		b #9602 ; 0x005BD4EC


005BAF6A  F8DF 7558		ldr r7, [pc, #+1368] ; 0x4C
005BAF6E  5DF0     		ldrb r0, [r6, +r7]

005BAF70  27FE     		mov r7, #254 ; 254
005BAF72  4038     		and r0, r0, r7

005BAF74  2800     		cmp r0, #0
005BAF76  BF08 2000		eqmov r0, #0
005BAF7A  BF18 2001		nemov r0, #1

005BAF7E  2800     		cmp r0, #0
005BAF80  D008     		beq #16 ; 0x005BAF94


005BAF84  F8DF 75A8		ldr r7, [pc, #+1448] ; 0x5BA10C
005BAF88  6838     		ldr r0, [r7]
005BAF8A  F85F 7418		ldr r7, [pc, #-1048] ; 0x10
005BAF8E  51F0     		str r0, [r6, +r7]

005BAF90  F002 BAAC		b #9560 ; 0x005BD4EC


005BAF94  F8DF 7530		ldr r7, [pc, #+1328] ; 0x4D
005BAF98  5DF0     		ldrb r0, [r6, +r7]

005BAF9A  2800     		cmp r0, #0
005BAF9C  BF08 2000		eqmov r0, #0
005BAFA0  BF18 2001		nemov r0, #1

005BAFA4  2800     		cmp r0, #0
005BAFA6  D008     		beq #16 ; 0x005BAFBA


005BAFAA  F8DF 7588		ldr r7, [pc, #+1416] ; 0x5BA110
005BAFAE  6838     		ldr r0, [r7]
005BAFB0  F85F 7440		ldr r7, [pc, #-1088] ; 0x10
005BAFB4  51F0     		str r0, [r6, +r7]

005BAFB6  F002 BA99		b #9522 ; 0x005BD4EC


005BAFBA  2000     		mov r0, #0 ; 0
005BAFBC  F8DF 74EC		ldr r7, [pc, #+1260] ; 0xE
005BAFC0  55F0     		strb r0, [r6, +r7]

005BAFC2  2004     		mov r0, #4 ; 4
005BAFC4  F8DF 74E0		ldr r7, [pc, #+1248] ; 0x4
005BAFC8  53F0     		strh r0, [r6, +r7]

005BAFCA  E3EC     		b #2008 ; 0x005BB7A6


005BAFCE  F85F 7438		ldr r7, [pc, #-1080] ; 0x8A
005BAFD2  5BF0     		ldrh r0, [r6, +r7]

005BAFD4  2804     		cmp r0, #4
005BAFD6  BFB8 2000		ltmov r0, #0
005BAFDA  BFA8 2001		gemov r0, #1

005BAFDE  2800     		cmp r0, #0
005BAFE0  D04B     		beq #150 ; 0x005BB07A


005BAFE4  F8DF 74CC		ldr r7, [pc, #+1228] ; 0x30
005BAFE8  5DF0     		ldrb r0, [r6, +r7]

005BAFEA  2800     		cmp r0, #0
005BAFEC  BF08 2001		eqmov r0, #1
005BAFF0  BF18 2000		nemov r0, #0

005BAFF4  2800     		cmp r0, #0
005BAFF6  D008     		beq #16 ; 0x005BB00A


005BAFFA  F8DF 753C		ldr r7, [pc, #+1340] ; 0x5BA114
005BAFFE  6838     		ldr r0, [r7]
005BB000  F85F 7490		ldr r7, [pc, #-1168] ; 0x10
005BB004  51F0     		str r0, [r6, +r7]

005BB006  F002 BA71		b #9442 ; 0x005BD4EC


005BB00A  F8DF 74B4		ldr r7, [pc, #+1204] ; 0x4B
005BB00E  5DF0     		ldrb r0, [r6, +r7]

005BB010  2802     		cmp r0, #2
005BB012  BF08 2000		eqmov r0, #0
005BB016  BF18 2001		nemov r0, #1

005BB01A  2800     		cmp r0, #0
005BB01C  D008     		beq #16 ; 0x005BB030


005BB020  F8DF 7518		ldr r7, [pc, #+1304] ; 0x5BA118
005BB024  6838     		ldr r0, [r7]
005BB026  F85F 74B4		ldr r7, [pc, #-1204] ; 0x10
005BB02A  51F0     		str r0, [r6, +r7]

005BB02C  F002 BA5E		b #9404 ; 0x005BD4EC


005BB030  F8DF 7490		ldr r7, [pc, #+1168] ; 0x4C
005BB034  5DF0     		ldrb r0, [r6, +r7]

005BB036  F44F 7780		mov r7, #256 ; 256
005BB03A  4378     		mul r0, r0, r7

005BB03C  F8DF 7488		ldr r7, [pc, #+1160] ; 0x4D
005BB040  5DF7     		ldrb r7, [r6, +r7]
005BB042  19C0     		add r0, r0, r7

005BB044  F85F 74B4		ldr r7, [pc, #-1204] ; 0x42
005BB048  5BF7     		ldrh r7, [r6, +r7]
005BB04A  42B8     		cmp r0, r7
005BB04C  BF08 2000		eqmov r0, #0
005BB050  BF18 2001		nemov r0, #1

005BB054  2800     		cmp r0, #0
005BB056  D008     		beq #16 ; 0x005BB06A


005BB05A  F8DF 74E4		ldr r7, [pc, #+1252] ; 0x5BA11C
005BB05E  6838     		ldr r0, [r7]
005BB060  F85F 74F0		ldr r7, [pc, #-1264] ; 0x10
005BB064  51F0     		str r0, [r6, +r7]

005BB066  F002 BA41		b #9346 ; 0x005BD4EC


005BB06A  2000     		mov r0, #0 ; 0
005BB06C  F8DF 7444		ldr r7, [pc, #+1092] ; 0x30
005BB070  55F0     		strb r0, [r6, +r7]

005BB072  2004     		mov r0, #4 ; 4
005BB074  F8DF 7430		ldr r7, [pc, #+1072] ; 0x4
005BB078  53F0     		strh r0, [r6, +r7]

005BB07A  E394     		b #1832 ; 0x005BB7A6


005BB07E  F85F 74E8		ldr r7, [pc, #-1256] ; 0x8A
005BB082  5BF0     		ldrh r0, [r6, +r7]

005BB084  2805     		cmp r0, #5
005BB086  BFB8 2000		ltmov r0, #0
005BB08A  BFA8 2001		gemov r0, #1

005BB08E  2800     		cmp r0, #0
005BB090  D061     		beq #194 ; 0x005BB156


005BB094  F8DF 7438		ldr r7, [pc, #+1080] ; 0x8C
005BB098  5DF0     		ldrb r0, [r6, +r7]

005BB09A  2800     		cmp r0, #0
005BB09C  BF08 2001		eqmov r0, #1
005BB0A0  BF18 2000		nemov r0, #0

005BB0A4  2800     		cmp r0, #0
005BB0A6  D008     		beq #16 ; 0x005BB0BA


005BB0AA  F8DF 7498		ldr r7, [pc, #+1176] ; 0x5BA120
005BB0AE  6838     		ldr r0, [r7]
005BB0B0  F85F 7540		ldr r7, [pc, #-1344] ; 0x10
005BB0B4  51F0     		str r0, [r6, +r7]

005BB0B6  F002 BA19		b #9266 ; 0x005BD4EC


005BB0BA  F8DF 7404		ldr r7, [pc, #+1028] ; 0x4B
005BB0BE  5DF0     		ldrb r0, [r6, +r7]

005BB0C0  2803     		cmp r0, #3
005BB0C2  BF08 2000		eqmov r0, #0
005BB0C6  BF18 2001		nemov r0, #1

005BB0CA  2800     		cmp r0, #0
005BB0CC  D008     		beq #16 ; 0x005BB0E0


005BB0D0  F8DF 7474		ldr r7, [pc, #+1140] ; 0x5BA124
005BB0D4  6838     		ldr r0, [r7]
005BB0D6  F85F 7564		ldr r7, [pc, #-1380] ; 0x10
005BB0DA  51F0     		str r0, [r6, +r7]

005BB0DC  F002 BA06		b #9228 ; 0x005BD4EC


005BB0E0  F8DF 73E0		ldr r7, [pc, #+992] ; 0x4C
005BB0E4  5DF0     		ldrb r0, [r6, +r7]

005BB0E6  F44F 7780		mov r7, #256 ; 256
005BB0EA  4378     		mul r0, r0, r7

005BB0EC  F8DF 73D8		ldr r7, [pc, #+984] ; 0x4D
005BB0F0  5DF7     		ldrb r7, [r6, +r7]
005BB0F2  19C0     		add r0, r0, r7

005BB0F4  F85F 755C		ldr r7, [pc, #-1372] ; 0x8E
005BB0F8  5BF7     		ldrh r7, [r6, +r7]
005BB0FA  42B8     		cmp r0, r7
005BB0FC  BF08 2000		eqmov r0, #0
005BB100  BF18 2001		nemov r0, #1

005BB104  2800     		cmp r0, #0
005BB106  D008     		beq #16 ; 0x005BB11A


005BB10A  F8DF 7440		ldr r7, [pc, #+1088] ; 0x5BA128
005BB10E  6838     		ldr r0, [r7]
005BB110  F85F 75A0		ldr r7, [pc, #-1440] ; 0x10
005BB114  51F0     		str r0, [r6, +r7]

005BB116  F002 B9E9		b #9170 ; 0x005BD4EC


005BB11A  F8DF 73B0		ldr r7, [pc, #+944] ; 0x4E
005BB11E  5DF0     		ldrb r0, [r6, +r7]

005BB120  F8DF 73BC		ldr r7, [pc, #+956] ; 0x130
005BB124  5DF7     		ldrb r7, [r6, +r7]
005BB126  42B8     		cmp r0, r7
005BB128  BF08 2000		eqmov r0, #0
005BB12C  BF18 2001		nemov r0, #1

005BB130  2800     		cmp r0, #0
005BB132  D008     		beq #16 ; 0x005BB146


005BB136  F8DF 7418		ldr r7, [pc, #+1048] ; 0x5BA12C
005BB13A  6838     		ldr r0, [r7]
005BB13C  F85F 75CC		ldr r7, [pc, #-1484] ; 0x10
005BB140  51F0     		str r0, [r6, +r7]

005BB142  F002 B9D3		b #9126 ; 0x005BD4EC


005BB146  2000     		mov r0, #0 ; 0
005BB148  F8DF 7384		ldr r7, [pc, #+900] ; 0x8C
005BB14C  55F0     		strb r0, [r6, +r7]

005BB14E  2005     		mov r0, #5 ; 5
005BB150  F8DF 7354		ldr r7, [pc, #+852] ; 0x4
005BB154  53F0     		strh r0, [r6, +r7]

005BB156  E326     		b #1612 ; 0x005BB7A6


005BB15A  F85F 75C4		ldr r7, [pc, #-1476] ; 0x8A
005BB15E  5BF0     		ldrh r0, [r6, +r7]

005BB160  2802     		cmp r0, #2
005BB162  BFB8 2000		ltmov r0, #0
005BB166  BFA8 2001		gemov r0, #1

005BB16A  2800     		cmp r0, #0
005BB16C  D02E     		beq #92 ; 0x005BB1CC


005BB170  F8DF 733C		ldr r7, [pc, #+828] ; 0x29
005BB174  5DF0     		ldrb r0, [r6, +r7]

005BB176  2800     		cmp r0, #0
005BB178  BF08 2001		eqmov r0, #1
005BB17C  BF18 2000		nemov r0, #0

005BB180  2800     		cmp r0, #0
005BB182  D008     		beq #16 ; 0x005BB196


005BB186  F8DF 73CC		ldr r7, [pc, #+972] ; 0x5BA130
005BB18A  6838     		ldr r0, [r7]
005BB18C  F85F 761C		ldr r7, [pc, #-1564] ; 0x10
005BB190  51F0     		str r0, [r6, +r7]

005BB192  F002 B9AB		b #9046 ; 0x005BD4EC


005BB196  F8DF 7328		ldr r7, [pc, #+808] ; 0x4B
005BB19A  5DF0     		ldrb r0, [r6, +r7]

005BB19C  2800     		cmp r0, #0
005BB19E  BF08 2000		eqmov r0, #0
005BB1A2  BF18 2001		nemov r0, #1

005BB1A6  2800     		cmp r0, #0
005BB1A8  D008     		beq #16 ; 0x005BB1BC


005BB1AC  F8DF 73A8		ldr r7, [pc, #+936] ; 0x5BA134
005BB1B0  6838     		ldr r0, [r7]
005BB1B2  F85F 7640		ldr r7, [pc, #-1600] ; 0x10
005BB1B6  51F0     		str r0, [r6, +r7]

005BB1B8  F002 B998		b #9008 ; 0x005BD4EC


005BB1BC  2000     		mov r0, #0 ; 0
005BB1BE  F8DF 72F0		ldr r7, [pc, #+752] ; 0x29
005BB1C2  55F0     		strb r0, [r6, +r7]

005BB1C4  2002     		mov r0, #2 ; 2
005BB1C6  F8DF 72E0		ldr r7, [pc, #+736] ; 0x4
005BB1CA  53F0     		strh r0, [r6, +r7]

005BB1CC  E2EB     		b #1494 ; 0x005BB7A6


005BB1D0  F85F 763C		ldr r7, [pc, #-1596] ; 0x8A
005BB1D4  5BF0     		ldrh r0, [r6, +r7]

005BB1D6  2805     		cmp r0, #5
005BB1D8  BFB8 2000		ltmov r0, #0
005BB1DC  BFA8 2001		gemov r0, #1

005BB1E0  2800     		cmp r0, #0
005BB1E2  F000 82E0		beq #1472 ; 0x005BB7A6


005BB1E6  F8DF 72D4		ldr r7, [pc, #+724] ; 0x4A
005BB1EA  5DF0     		ldrb r0, [r6, +r7]

005BB1EC  27F0     		mov r7, #240 ; 240
005BB1EE  4038     		and r0, r0, r7

005BB1F0  2830     		cmp r0, #48
005BB1F2  BF08 2000		eqmov r0, #0
005BB1F6  BF18 2001		nemov r0, #1

005BB1FA  2800     		cmp r0, #0
005BB1FC  D00E     		beq #28 ; 0x005BB21C


005BB200  F8DF 72B8		ldr r7, [pc, #+696] ; 0x4A
005BB204  5DF0     		ldrb r0, [r6, +r7]
005BB206  F8DF 72D4		ldr r7, [pc, #+724] ; 0x108
005BB20A  55F0     		strb r0, [r6, +r7]

005BB20C  F8DF 734C		ldr r7, [pc, #+844] ; 0x5BA138
005BB210  6838     		ldr r0, [r7]
005BB212  F85F 76A0		ldr r7, [pc, #-1696] ; 0x10
005BB216  51F0     		str r0, [r6, +r7]

005BB218  F002 B968		b #8912 ; 0x005BD4EC


005BB21C  2000     		mov r0, #0 ; 0
005BB21E  F8DF 7298		ldr r7, [pc, #+664] ; 0x44
005BB222  51F0     		str r0, [r6, +r7]

005BB224  F8DF 7280		ldr r7, [pc, #+640] ; 0x4
005BB228  5BF0     		ldrh r0, [r6, +r7]

005BB22A  1C40     		add r0, r0, #1

005BB22C  F8DF 7278		ldr r7, [pc, #+632] ; 0x4
005BB230  53F0     		strh r0, [r6, +r7]

005BB232  F8DF 7284		ldr r7, [pc, #+644] ; 0x44
005BB236  59F0     		ldr r0, [r6, +r7]

005BB238  2780     		mov r7, #128 ; 128
005BB23A  4378     		mul r0, r0, r7

005BB23C  F8DF 7278		ldr r7, [pc, #+632] ; 0x44
005BB240  51F0     		str r0, [r6, +r7]

005BB242  F8DF 7264		ldr r7, [pc, #+612] ; 0x4
005BB246  5BF0     		ldrh r0, [r6, +r7]
005BB248  F8DF 72A8		ldr r7, [pc, #+680] ; 0x172
005BB24C  53F0     		strh r0, [r6, +r7]

005BB24E  F8DF 72A4		ldr r7, [pc, #+676] ; 0x172
005BB252  5BF5     		ldrh r5, [r6, +r7]
005BB254  F8DF 7264		ldr r7, [pc, #+612] ; 0x4A
005BB258  EB07 0705		add r7, r7, r5, lsl #0
005BB25C  5DF0     		ldrb r0, [r6, +r7]

005BB25E  277F     		mov r7, #127 ; 127
005BB260  4038     		and r0, r0, r7

005BB262  F8DF 7254		ldr r7, [pc, #+596] ; 0x44
005BB266  59F7     		ldr r7, [r6, +r7]
005BB268  19C0     		add r0, r0, r7

005BB26A  F8DF 724C		ldr r7, [pc, #+588] ; 0x44
005BB26E  51F0     		str r0, [r6, +r7]

005BB270  F8DF 7234		ldr r7, [pc, #+564] ; 0x4
005BB274  5BF0     		ldrh r0, [r6, +r7]

005BB276  F8DF 7280		ldr r7, [pc, #+640] ; 0x174
005BB27A  53F0     		strh r0, [r6, +r7]

005BB27C  F8DF 7278		ldr r7, [pc, #+632] ; 0x174
005BB280  5BF5     		ldrh r5, [r6, +r7]
005BB282  F8DF 7238		ldr r7, [pc, #+568] ; 0x4A
005BB286  EB07 0705		add r7, r7, r5, lsl #0
005BB28A  5DF0     		ldrb r0, [r6, +r7]

005BB28C  277F     		mov r7, #127 ; 127
005BB28E  4038     		and r0, r0, r7

005BB290  2800     		cmp r0, #0
005BB292  BF08 2000		eqmov r0, #0
005BB296  BF18 2001		nemov r0, #1

005BB29A  2800     		cmp r0, #0
005BB29C  D0C2     		beq #-124 ; 0x005BB224

005BB29E  F8DF 7208		ldr r7, [pc, #+520] ; 0x4
005BB2A2  5BF0     		ldrh r0, [r6, +r7]

005BB2A4  2804     		cmp r0, #4
005BB2A6  BFD8 2000		lemov r0, #0
005BB2AA  BFC8 2001		gtmov r0, #1

005BB2AE  2800     		cmp r0, #0
005BB2B0  D008     		beq #16 ; 0x005BB2C4


005BB2B4  F8DF 72A8		ldr r7, [pc, #+680] ; 0x5BA13C
005BB2B8  6838     		ldr r0, [r7]
005BB2BA  F85F 7748		ldr r7, [pc, #-1864] ; 0x10
005BB2BE  51F0     		str r0, [r6, +r7]

005BB2C0  F002 B914		b #8744 ; 0x005BD4EC


005BB2C4  F8DF 71F0		ldr r7, [pc, #+496] ; 0x44
005BB2C8  59F0     		ldr r0, [r6, +r7]

005BB2CA  2803     		cmp r0, #3
005BB2CC  BF28 2000		hsmov r0, #0
005BB2D0  BF38 2001		lomov r0, #1

005BB2D4  2800     		cmp r0, #0
005BB2D6  D008     		beq #16 ; 0x005BB2EA


005BB2DA  F8DF 7288		ldr r7, [pc, #+648] ; 0x5BA140
005BB2DE  6838     		ldr r0, [r7]
005BB2E0  F85F 7770		ldr r7, [pc, #-1904] ; 0x10
005BB2E4  51F0     		str r0, [r6, +r7]

005BB2E6  F002 B901		b #8706 ; 0x005BD4EC


005BB2EA  F85F 7754		ldr r7, [pc, #-1876] ; 0x8A
005BB2EE  5BF0     		ldrh r0, [r6, +r7]

005BB2F0  B082     		sub sp, sp, #8
005BB2F2  F8CD 0000		str r0, [sp]
005BB2F6  F8DF 71C0		ldr r7, [pc, #+448] ; 0x44
005BB2FA  59F0     		ldr r0, [r6, +r7]

005BB2FC  F8DF 71A8		ldr r7, [pc, #+424] ; 0x4
005BB300  5BF7     		ldrh r7, [r6, +r7]
005BB302  19C0     		add r0, r0, r7

005BB304  1C40     		add r0, r0, #1

005BB306  4607     		mov r7, r0
005BB308  F8DD 0000		ldr r0, [sp]
005BB30C  B002     		add sp, sp, #8
005BB30E  42B8     		cmp r0, r7
005BB310  BF28 2000		hsmov r0, #0
005BB314  BF38 2001		lomov r0, #1

005BB318  2800     		cmp r0, #0
005BB31A  D006     		beq #12 ; 0x005BB32A


005BB31E  2000     		mov r0, #0 ; 0
005BB320  F8DF 7184		ldr r7, [pc, #+388] ; 0x4
005BB324  53F0     		strh r0, [r6, +r7]

005BB326  E23E     		b #1148 ; 0x005BB7A6


005BB32A  F8DF 717C		ldr r7, [pc, #+380] ; 0x4
005BB32E  5BF0     		ldrh r0, [r6, +r7]

005BB330  1C40     		add r0, r0, #1

005BB332  F8DF 7174		ldr r7, [pc, #+372] ; 0x4
005BB336  53F0     		strh r0, [r6, +r7]

005BB338  F8DF 716C		ldr r7, [pc, #+364] ; 0x4
005BB33C  5BF0     		ldrh r0, [r6, +r7]
005BB33E  F8DF 71BC		ldr r7, [pc, #+444] ; 0x176
005BB342  53F0     		strh r0, [r6, +r7]

005BB344  F8DF 71B4		ldr r7, [pc, #+436] ; 0x176
005BB348  5BF5     		ldrh r5, [r6, +r7]
005BB34A  F8DF 7170		ldr r7, [pc, #+368] ; 0x4A
005BB34E  EB07 0705		add r7, r7, r5, lsl #0
005BB352  5DF0     		ldrb r0, [r6, +r7]

005BB354  F44F 7780		mov r7, #256 ; 256
005BB358  4378     		mul r0, r0, r7

005BB35A  F8DF 71A4		ldr r7, [pc, #+420] ; 0x178
005BB35E  53F0     		strh r0, [r6, +r7]

005BB360  F8DF 7144		ldr r7, [pc, #+324] ; 0x4
005BB364  5BF0     		ldrh r0, [r6, +r7]

005BB366  1C40     		add r0, r0, #1

005BB368  F8DF 7198		ldr r7, [pc, #+408] ; 0x17A
005BB36C  53F0     		strh r0, [r6, +r7]

005BB36E  F8DF 7190		ldr r7, [pc, #+400] ; 0x178
005BB372  5BF0     		ldrh r0, [r6, +r7]

005BB374  F8DF 718C		ldr r7, [pc, #+396] ; 0x17A
005BB378  5BF5     		ldrh r5, [r6, +r7]
005BB37A  F8DF 7140		ldr r7, [pc, #+320] ; 0x4A
005BB37E  EB07 0705		add r7, r7, r5, lsl #0
005BB382  5DF7     		ldrb r7, [r6, +r7]
005BB384  19C0     		add r0, r0, r7

005BB386  F8DF 714C		ldr r7, [pc, #+332] ; 0xB8
005BB38A  53F0     		strh r0, [r6, +r7]

005BB38C  F8DF 7118		ldr r7, [pc, #+280] ; 0x4
005BB390  5BF0     		ldrh r0, [r6, +r7]

005BB392  1C80     		add r0, r0, #2

005BB394  F8DF 7110		ldr r7, [pc, #+272] ; 0x4
005BB398  53F0     		strh r0, [r6, +r7]

005BB39A  F8DF 7138		ldr r7, [pc, #+312] ; 0xB8
005BB39E  5BF0     		ldrh r0, [r6, +r7]

005BB3A0  B082     		sub sp, sp, #8
005BB3A2  F8CD 0000		str r0, [sp]
005BB3A6  F8DF 7110		ldr r7, [pc, #+272] ; 0x44
005BB3AA  59F0     		ldr r0, [r6, +r7]

005BB3AC  1E80     		sub r0, r0, #2

005BB3AE  4607     		mov r7, r0
005BB3B0  F8DD 0000		ldr r0, [sp]
005BB3B4  B002     		add sp, sp, #8
005BB3B6  42B8     		cmp r0, r7
005BB3B8  BF98 2000		lsmov r0, #0
005BB3BC  BF88 2001		himov r0, #1

005BB3C0  B082     		sub sp, sp, #8
005BB3C2  F8CD 0000		str r0, [sp]
005BB3C6  F8DF 710C		ldr r7, [pc, #+268] ; 0xB8
005BB3CA  5BF0     		ldrh r0, [r6, +r7]

005BB3CC  2801     		cmp r0, #1
005BB3CE  BFA8 2000		gemov r0, #0
005BB3D2  BFB8 2001		ltmov r0, #1

005BB3D6  4607     		mov r7, r0
005BB3D8  F8DD 0000		ldr r0, [sp]
005BB3DC  B002     		add sp, sp, #8
005BB3DE  4338     		orr r0, r0, r7

005BB3E0  2800     		cmp r0, #0
005BB3E2  D008     		beq #16 ; 0x005BB3F6


005BB3E6  F8DF 7180		ldr r7, [pc, #+384] ; 0x5BA144
005BB3EA  6838     		ldr r0, [r7]
005BB3EC  F85F 787C		ldr r7, [pc, #-2172] ; 0x10
005BB3F0  51F0     		str r0, [r6, +r7]

005BB3F2  F002 B87B		b #8438 ; 0x005BD4EC


005BB3F6  F8DF 70DC		ldr r7, [pc, #+220] ; 0xB8
005BB3FA  5BF0     		ldrh r0, [r6, +r7]

005BB3FC  F8DF 70E4		ldr r7, [pc, #+228] ; 0x144
005BB400  59F7     		ldr r7, [r6, +r7]
005BB402  42B8     		cmp r0, r7
005BB404  BF98 2000		lsmov r0, #0
005BB408  BF88 2001		himov r0, #1

005BB40C  2800     		cmp r0, #0
005BB40E  D008     		beq #16 ; 0x005BB422


005BB412  F8DF 7158		ldr r7, [pc, #+344] ; 0x5BA148
005BB416  6838     		ldr r0, [r7]
005BB418  F85F 78A8		ldr r7, [pc, #-2216] ; 0x10
005BB41C  51F0     		str r0, [r6, +r7]

005BB41E  F002 B865		b #8394 ; 0x005BD4EC


005BB422  F8DF 7084		ldr r7, [pc, #+132] ; 0x4
005BB426  5BF0     		ldrh r0, [r6, +r7]
005BB428  F8DF 70DC		ldr r7, [pc, #+220] ; 0x17C
005BB42C  53F0     		strh r0, [r6, +r7]

005BB42E  F8DF 70D8		ldr r7, [pc, #+216] ; 0x17C
005BB432  5BF5     		ldrh r5, [r6, +r7]
005BB434  F8DF 7084		ldr r7, [pc, #+132] ; 0x4A
005BB438  EB07 0705		add r7, r7, r5, lsl #0
005BB43C  19F0     		add r0, r6, r7

005BB43E  F85F 7828		ldr r7, [pc, #-2088] ; 0x15C
005BB442  51F0     		str r0, [r6, +r7]

005BB444  F85F 7848		ldr r7, [pc, #-2120] ; 0x140
005BB448  59F0     		ldr r0, [r6, +r7]

005BB44A  F8DF 7088		ldr r7, [pc, #+136] ; 0xB8
005BB44E  5BF7     		ldrh r7, [r6, +r7]
005BB450  463A     		mov r2, r7
005BB452  F85F 783C		ldr r7, [pc, #-2108] ; 0x15C
005BB456  59F1     		ldr r1, [r6, +r7]
005BB458  4600     		mov r0, r0
005BB45A  F8DF 40B0		ldr r4, [pc, #+176] ; 0x4907E5
005BB45E  F044 0401		orr r4, r4, #1
005BB462  47A0     		blx r4

005BB464  F85F 78EC		ldr r7, [pc, #-2284] ; 0x18
005BB468  51F0     		str r0, [r6, +r7]

005BB46A  F8DF 703C		ldr r7, [pc, #+60] ; 0x4
005BB46E  5BF0     		ldrh r0, [r6, +r7]

005BB470  F8DF 7060		ldr r7, [pc, #+96] ; 0xB8
005BB474  5BF7     		ldrh r7, [r6, +r7]
005BB476  19C0     		add r0, r0, r7

005BB478  F8DF 702C		ldr r7, [pc, #+44] ; 0x4
005BB47C  53F0     		strh r0, [r6, +r7]

005BB47E  F8DF 703C		ldr r7, [pc, #+60] ; 0x4A
005BB482  5DF0     		ldrb r0, [r6, +r7]

005BB484  B082     		sub sp, sp, #8
005BB486  F8CD 1000		str r1, [sp]
005BB48A  2102     		mov r1, #2 ; 2
005BB48C  FBB0 F0F1		udiv r0, r0, r1
005BB490  F8DD 1000		ldr r1, [sp]
005BB494  B002     		add sp, sp, #8

005BB496  2703     		mov r7, #3 ; 3
005BB498  4038     		and r0, r0, r7

005BB49A  F85F 7914		ldr r7, [pc, #-2324] ; 0x24
005BB49E  51F0     		str r0, [r6, +r7]

005BB4A0  F85F 791C		ldr r7, [pc, #-2332] ; 0x24
005BB4A4  59F0     		ldr r0, [r6, +r7]

005BB4A6  E063     		b #198

005BB4A8  00000004		; 0x00000004
005BB4AC  0000000E		; 0x0000000E
005BB4B0  00000029		; 0x00000029
005BB4B4  00000030		; 0x00000030
005BB4B8  00000044		; 0x00000044
005BB4BC  0000004A		; 0x0000004A
005BB4C0  0000004B		; 0x0000004B
005BB4C4  0000004C		; 0x0000004C
005BB4C8  0000004D		; 0x0000004D
005BB4CC  0000004E		; 0x0000004E
005BB4D0  0000008C		; 0x0000008C
005BB4D4  000000B8		; 0x000000B8
005BB4D8  00000100		; 0x00000100
005BB4DC  00000108		; 0x00000108
005BB4E0  00000130		; 0x00000130
005BB4E4  00000144		; 0x00000144
005BB4E8  00000168		; 0x00000168
005BB4EC  0000016C		; 0x0000016C
005BB4F0  00000170		; 0x00000170
005BB4F4  00000172		; 0x00000172
005BB4F8  00000174		; 0x00000174
005BB4FC  00000176		; 0x00000176
005BB500  00000178		; 0x00000178
005BB504  0000017A		; 0x0000017A
005BB508  0000017C		; 0x0000017C
005BB50C  004907E5		; 0x004907E5
005BB510  00490B9D		; 0x00490B9D
005BB514  00490C65		; 0x00490C65
005BB518  005BA0F4		; 0x005BA0F4
005BB51C  005BA0F8		; 0x005BA0F8
005BB520  005BA0FC		; 0x005BA0FC
005BB524  005BA100		; 0x005BA100
005BB528  005BA104		; 0x005BA104
005BB52C  005BA108		; 0x005BA108
005BB530  005BA10C		; 0x005BA10C
005BB534  005BA110		; 0x005BA110
005BB538  005BA114		; 0x005BA114
005BB53C  005BA118		; 0x005BA118
005BB540  005BA11C		; 0x005BA11C
005BB544  005BA120		; 0x005BA120
005BB548  005BA124		; 0x005BA124
005BB54C  005BA128		; 0x005BA128
005BB550  005BA12C		; 0x005BA12C
005BB554  005BA130		; 0x005BA130
005BB558  005BA134		; 0x005BA134
005BB55C  005BA138		; 0x005BA138
005BB560  005BA13C		; 0x005BA13C
005BB564  005BA140		; 0x005BA140
005BB568  005BA144		; 0x005BA144
005BB56C  005BA148		; 0x005BA148

005BB570  2800     		cmp r0, #0
005BB572  BF08 2000		eqmov r0, #0
005BB576  BF18 2001		nemov r0, #1

005BB57A  2800     		cmp r0, #0
005BB57C  D074     		beq #232 ; 0x005BB668


005BB580  F85F 79FC		ldr r7, [pc, #-2556] ; 0x24
005BB584  59F0     		ldr r0, [r6, +r7]

005BB586  2801     		cmp r0, #1
005BB588  BF08 2000		eqmov r0, #0
005BB58C  BF18 2001		nemov r0, #1

005BB590  2800     		cmp r0, #0
005BB592  D008     		beq #16 ; 0x005BB5A6


005BB596  F8DF 7850		ldr r7, [pc, #+2128] ; 0x5BA14C
005BB59A  6838     		ldr r0, [r7]
005BB59C  F85F 7A2C		ldr r7, [pc, #-2604] ; 0x10
005BB5A0  51F0     		str r0, [r6, +r7]

005BB5A2  F001 BFA3		b #8006 ; 0x005BD4EC


005BB5A6  F85F 7A1C		ldr r7, [pc, #-2588] ; 0x28
005BB5AA  5DF0     		ldrb r0, [r6, +r7]

005BB5AC  B082     		sub sp, sp, #8
005BB5AE  F8CD 0000		str r0, [sp]
005BB5B2  2010     		mov r0, #16 ; 16

005BB5B4  B082     		sub sp, sp, #8
005BB5B6  F8CD 1000		str r1, [sp]
005BB5BA  2102     		mov r1, #2 ; 2
005BB5BC  FBB0 F0F1		udiv r0, r0, r1
005BB5C0  F8DD 1000		ldr r1, [sp]
005BB5C4  B002     		add sp, sp, #8

005BB5C6  4607     		mov r7, r0
005BB5C8  F8DD 0000		ldr r0, [sp]
005BB5CC  B002     		add sp, sp, #8
005BB5CE  42B8     		cmp r0, r7
005BB5D0  BF38 2000		lomov r0, #0
005BB5D4  BF28 2001		hsmov r0, #1

005BB5D8  2800     		cmp r0, #0
005BB5DA  D008     		beq #16 ; 0x005BB5EE


005BB5DE  F8DF 780C		ldr r7, [pc, #+2060] ; 0x5BA150
005BB5E2  6838     		ldr r0, [r7]
005BB5E4  F85F 7A74		ldr r7, [pc, #-2676] ; 0x10
005BB5E8  51F0     		str r0, [r6, +r7]

005BB5EA  F001 BF7F		b #7934 ; 0x005BD4EC


005BB5EE  F85F 7148		ldr r7, [pc, #-328] ; 0x4
005BB5F2  5BF0     		ldrh r0, [r6, +r7]
005BB5F4  F8DF 77BC		ldr r7, [pc, #+1980] ; 0x17E
005BB5F8  53F0     		strh r0, [r6, +r7]

005BB5FA  F8DF 77B8		ldr r7, [pc, #+1976] ; 0x17E
005BB5FE  5BF5     		ldrh r5, [r6, +r7]
005BB600  F85F 7148		ldr r7, [pc, #-328] ; 0x4A
005BB604  EB07 0705		add r7, r7, r5, lsl #0
005BB608  5DF0     		ldrb r0, [r6, +r7]

005BB60A  F44F 7780		mov r7, #256 ; 256
005BB60E  4378     		mul r0, r0, r7

005BB610  F85F 7114		ldr r7, [pc, #-276] ; 0x178
005BB614  53F0     		strh r0, [r6, +r7]

005BB616  F85F 7170		ldr r7, [pc, #-368] ; 0x4
005BB61A  5BF0     		ldrh r0, [r6, +r7]

005BB61C  1C40     		add r0, r0, #1

005BB61E  F85F 711C		ldr r7, [pc, #-284] ; 0x17A
005BB622  53F0     		strh r0, [r6, +r7]

005BB624  F85F 7128		ldr r7, [pc, #-296] ; 0x178
005BB628  5BF0     		ldrh r0, [r6, +r7]

005BB62A  F85F 7128		ldr r7, [pc, #-296] ; 0x17A
005BB62E  5BF5     		ldrh r5, [r6, +r7]
005BB630  F85F 7178		ldr r7, [pc, #-376] ; 0x4A
005BB634  EB07 0705		add r7, r7, r5, lsl #0
005BB638  5DF7     		ldrb r7, [r6, +r7]
005BB63A  19C0     		add r0, r0, r7

005BB63C  F85F 7AB4		ldr r7, [pc, #-2740] ; 0x28
005BB640  5DF5     		ldrb r5, [r6, +r7]
005BB642  F8DF 7750		ldr r7, [pc, #+1872] ; 0x32
005BB646  EB07 0745		add r7, r7, r5, lsl #1
005BB64A  53F0     		strh r0, [r6, +r7]

005BB64C  F85F 71A8		ldr r7, [pc, #-424] ; 0x4
005BB650  5BF0     		ldrh r0, [r6, +r7]

005BB652  1C80     		add r0, r0, #2

005BB654  F85F 71B0		ldr r7, [pc, #-432] ; 0x4
005BB658  53F0     		strh r0, [r6, +r7]

005BB65A  F85F 7AD0		ldr r7, [pc, #-2768] ; 0x28
005BB65E  5DF0     		ldrb r0, [r6, +r7]

005BB660  1C40     		add r0, r0, #1

005BB662  F85F 7AD8		ldr r7, [pc, #-2776] ; 0x28
005BB666  55F0     		strb r0, [r6, +r7]

005BB668  F85F 71B4		ldr r7, [pc, #-436] ; 0x44
005BB66C  59F0     		ldr r0, [r6, +r7]

005BB66E  B082     		sub sp, sp, #8
005BB670  F8CD 0000		str r0, [sp]
005BB674  F85F 71A4		ldr r7, [pc, #-420] ; 0xB8
005BB678  5BF0     		ldrh r0, [r6, +r7]

005BB67A  1C80     		add r0, r0, #2

005BB67C  4607     		mov r7, r0
005BB67E  F8DD 0000		ldr r0, [sp]
005BB682  B002     		add sp, sp, #8
005BB684  1BC0     		sub r0, r0, r7

005BB686  F8DF 7724		ldr r7, [pc, #+1828] ; 0x156
005BB68A  53F0     		strh r0, [r6, +r7]

005BB68C  F85F 7B08		ldr r7, [pc, #-2824] ; 0x24
005BB690  59F0     		ldr r0, [r6, +r7]

005BB692  2800     		cmp r0, #0
005BB694  BF08 2000		eqmov r0, #0
005BB698  BF18 2001		nemov r0, #1

005BB69C  2800     		cmp r0, #0
005BB69E  D01A     		beq #52 ; 0x005BB6D6


005BB6A2  F8DF 7708		ldr r7, [pc, #+1800] ; 0x156
005BB6A6  5BF0     		ldrh r0, [r6, +r7]

005BB6A8  2802     		cmp r0, #2
005BB6AA  BFA8 2000		gemov r0, #0
005BB6AE  BFB8 2001		ltmov r0, #1

005BB6B2  2800     		cmp r0, #0
005BB6B4  D008     		beq #16 ; 0x005BB6C8


005BB6B8  F8DF 7734		ldr r7, [pc, #+1844] ; 0x5BA154
005BB6BC  6838     		ldr r0, [r7]
005BB6BE  F85F 7B4C		ldr r7, [pc, #-2892] ; 0x10
005BB6C2  51F0     		str r0, [r6, +r7]

005BB6C4  F001 BF12		b #7716 ; 0x005BD4EC


005BB6C8  F8DF 76E0		ldr r7, [pc, #+1760] ; 0x156
005BB6CC  5BF0     		ldrh r0, [r6, +r7]

005BB6CE  1E80     		sub r0, r0, #2

005BB6D0  F8DF 76D8		ldr r7, [pc, #+1752] ; 0x156
005BB6D4  53F0     		strh r0, [r6, +r7]

005BB6D6  F8DF 76D4		ldr r7, [pc, #+1748] ; 0x156
005BB6DA  5BF0     		ldrh r0, [r6, +r7]

005BB6DC  F8DF 76C8		ldr r7, [pc, #+1736] ; 0x14C
005BB6E0  59F7     		ldr r7, [r6, +r7]
005BB6E2  42B8     		cmp r0, r7
005BB6E4  BF98 2000		lsmov r0, #0
005BB6E8  BF88 2001		himov r0, #1

005BB6EC  B082     		sub sp, sp, #8
005BB6EE  F8CD 0000		str r0, [sp]
005BB6F2  F8DF 76B8		ldr r7, [pc, #+1720] ; 0x156
005BB6F6  5BF0     		ldrh r0, [r6, +r7]

005BB6F8  2800     		cmp r0, #0
005BB6FA  BF18 2000		nemov r0, #0
005BB6FE  BF08 2001		eqmov r0, #1

005BB702  4607     		mov r7, r0
005BB704  F8DD 0000		ldr r0, [sp]
005BB708  B002     		add sp, sp, #8
005BB70A  4338     		orr r0, r0, r7

005BB70C  2800     		cmp r0, #0
005BB70E  D008     		beq #16 ; 0x005BB722


005BB712  F8DF 76E0		ldr r7, [pc, #+1760] ; 0x5BA158
005BB716  6838     		ldr r0, [r7]
005BB718  F85F 7BA8		ldr r7, [pc, #-2984] ; 0x10
005BB71C  51F0     		str r0, [r6, +r7]

005BB71E  F001 BEE5		b #7626 ; 0x005BD4EC


005BB722  F8DF 7680		ldr r7, [pc, #+1664] ; 0x148
005BB726  59F0     		ldr r0, [r6, +r7]

005BB728  F8DF 767C		ldr r7, [pc, #+1660] ; 0x14C
005BB72C  59F2     		ldr r2, [r6, +r7]
005BB72E  2100     		mov r1, #0 ; 0
005BB730  4600     		mov r0, r0
005BB732  F8DF 46B0		ldr r4, [pc, #+1712] ; 0x490795
005BB736  F044 0401		orr r4, r4, #1
005BB73A  47A0     		blx r4

005BB73C  F85F 7BC4		ldr r7, [pc, #-3012] ; 0x18
005BB740  51F0     		str r0, [r6, +r7]

005BB742  F85F 729C		ldr r7, [pc, #-668] ; 0x4
005BB746  5BF0     		ldrh r0, [r6, +r7]
005BB748  F8DF 766C		ldr r7, [pc, #+1644] ; 0x180
005BB74C  53F0     		strh r0, [r6, +r7]

005BB74E  F8DF 7668		ldr r7, [pc, #+1640] ; 0x180
005BB752  5BF5     		ldrh r5, [r6, +r7]
005BB754  F85F 729C		ldr r7, [pc, #-668] ; 0x4A
005BB758  EB07 0705		add r7, r7, r5, lsl #0
005BB75C  19F0     		add r0, r6, r7

005BB75E  F85F 7B48		ldr r7, [pc, #-2888] ; 0x15C
005BB762  51F0     		str r0, [r6, +r7]

005BB764  F8DF 763C		ldr r7, [pc, #+1596] ; 0x148
005BB768  59F0     		ldr r0, [r6, +r7]

005BB76A  F8DF 7640		ldr r7, [pc, #+1600] ; 0x156
005BB76E  5BF7     		ldrh r7, [r6, +r7]
005BB770  463A     		mov r2, r7
005BB772  F85F 7B5C		ldr r7, [pc, #-2908] ; 0x15C
005BB776  59F1     		ldr r1, [r6, +r7]
005BB778  4600     		mov r0, r0
005BB77A  F85F 4270		ldr r4, [pc, #-624] ; 0x4907E5
005BB77E  F044 0401		orr r4, r4, #1
005BB782  47A0     		blx r4

005BB784  F85F 7C0C		ldr r7, [pc, #-3084] ; 0x18
005BB788  51F0     		str r0, [r6, +r7]

005BB78A  F8DF 7620		ldr r7, [pc, #+1568] ; 0x156
005BB78E  5BF0     		ldrh r0, [r6, +r7]

005BB790  F85F 72EC		ldr r7, [pc, #-748] ; 0x4
005BB794  5BF7     		ldrh r7, [r6, +r7]
005BB796  19C0     		add r0, r0, r7

005BB798  F85F 72F4		ldr r7, [pc, #-756] ; 0x4
005BB79C  53F0     		strh r0, [r6, +r7]

005BB79E  2001     		mov r0, #1 ; 1
005BB7A0  F85F 7B90		ldr r7, [pc, #-2960] ; 0x154
005BB7A4  55F0     		strb r0, [r6, +r7]

005BB7A6  F85F 7C10		ldr r7, [pc, #-3088] ; 0x8A
005BB7AA  5BF0     		ldrh r0, [r6, +r7]

005BB7AC  F85F 7308		ldr r7, [pc, #-776] ; 0x4
005BB7B0  5BF7     		ldrh r7, [r6, +r7]
005BB7B2  42B8     		cmp r0, r7
005BB7B4  BFA8 2000		gemov r0, #0
005BB7B8  BFB8 2001		ltmov r0, #1

005BB7BC  2800     		cmp r0, #0
005BB7BE  D008     		beq #16 ; 0x005BB7D2


005BB7C2  F8DF 7634		ldr r7, [pc, #+1588] ; 0x5BA15C
005BB7C6  6838     		ldr r0, [r7]
005BB7C8  F85F 7C58		ldr r7, [pc, #-3160] ; 0x10
005BB7CC  51F0     		str r0, [r6, +r7]

005BB7CE  F001 BE8D		b #7450 ; 0x005BD4EC


005BB7D2  F85F 732C		ldr r7, [pc, #-812] ; 0x4
005BB7D6  5BF0     		ldrh r0, [r6, +r7]

005BB7D8  2800     		cmp r0, #0
005BB7DA  BF08 2000		eqmov r0, #0
005BB7DE  BF18 2001		nemov r0, #1

005BB7E2  2800     		cmp r0, #0
005BB7E4  D035     		beq #106 ; 0x005BB852


005BB7E8  F85F 7C54		ldr r7, [pc, #-3156] ; 0x8A
005BB7EC  5BF0     		ldrh r0, [r6, +r7]

005BB7EE  F85F 7348		ldr r7, [pc, #-840] ; 0x4
005BB7F2  5BF7     		ldrh r7, [r6, +r7]
005BB7F4  1BC0     		sub r0, r0, r7

005BB7F6  F85F 7C60		ldr r7, [pc, #-3168] ; 0x8A
005BB7FA  53F0     		strh r0, [r6, +r7]

005BB7FC  4630     		mov r0, r6
005BB7FE  F85F 7344		ldr r7, [pc, #-836] ; 0x4A
005BB802  19C0     		add r0, r0, r7

005BB804  F85F 7BF0		ldr r7, [pc, #-3056] ; 0x15C
005BB808  51F0     		str r0, [r6, +r7]

005BB80A  F85F 7364		ldr r7, [pc, #-868] ; 0x4
005BB80E  5BF0     		ldrh r0, [r6, +r7]
005BB810  F8DF 75A8		ldr r7, [pc, #+1448] ; 0x182
005BB814  53F0     		strh r0, [r6, +r7]

005BB816  F8DF 75A4		ldr r7, [pc, #+1444] ; 0x182
005BB81A  5BF5     		ldrh r5, [r6, +r7]
005BB81C  F85F 7364		ldr r7, [pc, #-868] ; 0x4A
005BB820  EB07 0705		add r7, r7, r5, lsl #0
005BB824  19F0     		add r0, r6, r7

005BB826  F8DF 7598		ldr r7, [pc, #+1432] ; 0x184
005BB82A  51F0     		str r0, [r6, +r7]

005BB82C  F85F 7C18		ldr r7, [pc, #-3096] ; 0x15C
005BB830  59F0     		ldr r0, [r6, +r7]

005BB832  F85F 7C9C		ldr r7, [pc, #-3228] ; 0x8A
005BB836  5BF7     		ldrh r7, [r6, +r7]
005BB838  463A     		mov r2, r7
005BB83A  F8DF 7584		ldr r7, [pc, #+1412] ; 0x184
005BB83E  59F1     		ldr r1, [r6, +r7]
005BB840  4600     		mov r0, r0
005BB842  F85F 4338		ldr r4, [pc, #-824] ; 0x4907E5
005BB846  F044 0401		orr r4, r4, #1
005BB84A  47A0     		blx r4

005BB84C  F85F 7CD4		ldr r7, [pc, #-3284] ; 0x18
005BB850  51F0     		str r0, [r6, +r7]

005BB852  F85F 7CE4		ldr r7, [pc, #-3300] ; 0xD
005BB856  5DF0     		ldrb r0, [r6, +r7]

005BB858  2800     		cmp r0, #0
005BB85A  BF18 2000		nemov r0, #0
005BB85E  BF08 2001		eqmov r0, #1

005BB862  2800     		cmp r0, #0
005BB864  F040 8136		bne #620 ; 0x005BBAD4


005BB868  F85F 7CFC		ldr r7, [pc, #-3324] ; 0xD
005BB86C  5DF0     		ldrb r0, [r6, +r7]

005BB86E  280A     		cmp r0, #10
005BB870  BF18 2000		nemov r0, #0
005BB874  BF08 2001		eqmov r0, #1

005BB878  2800     		cmp r0, #0
005BB87A  F040 81C1		bne #898 ; 0x005BBC00


005BB87E  F85F 7D10		ldr r7, [pc, #-3344] ; 0xD
005BB882  5DF0     		ldrb r0, [r6, +r7]

005BB884  280B     		cmp r0, #11
005BB886  BF18 2000		nemov r0, #0
005BB88A  BF08 2001		eqmov r0, #1

005BB88E  2800     		cmp r0, #0
005BB890  F040 81EF		bne #990 ; 0x005BBC72


005BB894  F85F 7D28		ldr r7, [pc, #-3368] ; 0xD
005BB898  5DF0     		ldrb r0, [r6, +r7]

005BB89A  280C     		cmp r0, #12
005BB89C  BF18 2000		nemov r0, #0
005BB8A0  BF08 2001		eqmov r0, #1

005BB8A4  2800     		cmp r0, #0
005BB8A6  F040 81F6		bne #1004 ; 0x005BBC96


005BB8AA  F85F 7D3C		ldr r7, [pc, #-3388] ; 0xD
005BB8AE  5DF0     		ldrb r0, [r6, +r7]

005BB8B0  280D     		cmp r0, #13
005BB8B2  BF18 2000		nemov r0, #0
005BB8B6  BF08 2001		eqmov r0, #1

005BB8BA  2800     		cmp r0, #0
005BB8BC  F040 8318		bne #1584 ; 0x005BBEF0


005BB8C0  F85F 7D54		ldr r7, [pc, #-3412] ; 0xD
005BB8C4  5DF0     		ldrb r0, [r6, +r7]

005BB8C6  280E     		cmp r0, #14
005BB8C8  BF18 2000		nemov r0, #0
005BB8CC  BF08 2001		eqmov r0, #1

005BB8D0  2800     		cmp r0, #0
005BB8D2  F040 8320		bne #1600 ; 0x005BBF16


005BB8D6  F85F 7D68		ldr r7, [pc, #-3432] ; 0xD
005BB8DA  5DF0     		ldrb r0, [r6, +r7]

005BB8DC  280F     		cmp r0, #15
005BB8DE  BF18 2000		nemov r0, #0
005BB8E2  BF08 2001		eqmov r0, #1

005BB8E6  2800     		cmp r0, #0
005BB8E8  F040 833A		bne #1652 ; 0x005BBF60


005BB8EC  F85F 7D80		ldr r7, [pc, #-3456] ; 0xD
005BB8F0  5DF0     		ldrb r0, [r6, +r7]

005BB8F2  2810     		cmp r0, #16
005BB8F4  BF18 2000		nemov r0, #0
005BB8F8  BF08 2001		eqmov r0, #1

005BB8FC  2800     		cmp r0, #0
005BB8FE  F040 8354		bne #1704 ; 0x005BBFAA


005BB902  F85F 7D94		ldr r7, [pc, #-3476] ; 0xD
005BB906  5DF0     		ldrb r0, [r6, +r7]

005BB908  2811     		cmp r0, #17
005BB90A  BF18 2000		nemov r0, #0
005BB90E  BF08 2001		eqmov r0, #1

005BB912  2800     		cmp r0, #0
005BB914  F040 8356		bne #1708 ; 0x005BBFC4


005BB918  F85F 7DAC		ldr r7, [pc, #-3500] ; 0xD
005BB91C  5DF0     		ldrb r0, [r6, +r7]

005BB91E  2812     		cmp r0, #18
005BB920  BF18 2000		nemov r0, #0
005BB924  BF08 2001		eqmov r0, #1

005BB928  2800     		cmp r0, #0
005BB92A  F040 8366		bne #1740 ; 0x005BBFFA


005BB92E  F85F 7DC0		ldr r7, [pc, #-3520] ; 0xD
005BB932  5DF0     		ldrb r0, [r6, +r7]

005BB934  2813     		cmp r0, #19
005BB936  BF18 2000		nemov r0, #0
005BB93A  BF08 2001		eqmov r0, #1

005BB93E  2800     		cmp r0, #0
005BB940  F040 83BB		bne #1910 ; 0x005BC0BA


005BB944  F85F 7DD8		ldr r7, [pc, #-3544] ; 0xD
005BB948  5DF0     		ldrb r0, [r6, +r7]

005BB94A  2832     		cmp r0, #50
005BB94C  BF18 2000		nemov r0, #0
005BB950  BF08 2001		eqmov r0, #1

005BB954  2800     		cmp r0, #0
005BB956  F040 83FA		bne #2036 ; 0x005BC14E


005BB95A  F85F 7DEC		ldr r7, [pc, #-3564] ; 0xD
005BB95E  5DF0     		ldrb r0, [r6, +r7]

005BB960  2833     		cmp r0, #51
005BB962  BF18 2000		nemov r0, #0
005BB966  BF08 2001		eqmov r0, #1

005BB96A  2800     		cmp r0, #0
005BB96C  F040 843E		bne #2172 ; 0x005BC1EC


005BB970  F85F 7E04		ldr r7, [pc, #-3588] ; 0xD
005BB974  5DF0     		ldrb r0, [r6, +r7]

005BB976  2864     		cmp r0, #100
005BB978  BF18 2000		nemov r0, #0
005BB97C  BF08 2001		eqmov r0, #1

005BB980  2800     		cmp r0, #0
005BB982  F040 84AE		bne #2396 ; 0x005BC2E2


005BB986  F85F 7E18		ldr r7, [pc, #-3608] ; 0xD
005BB98A  5DF0     		ldrb r0, [r6, +r7]

005BB98C  2865     		cmp r0, #101
005BB98E  BF18 2000		nemov r0, #0
005BB992  BF08 2001		eqmov r0, #1

005BB996  2800     		cmp r0, #0
005BB998  F040 8539		bne #2674 ; 0x005BC40E


005BB99C  F85F 7E30		ldr r7, [pc, #-3632] ; 0xD
005BB9A0  5DF0     		ldrb r0, [r6, +r7]

005BB9A2  2866     		cmp r0, #102
005BB9A4  BF18 2000		nemov r0, #0
005BB9A8  BF08 2001		eqmov r0, #1

005BB9AC  2800     		cmp r0, #0
005BB9AE  F040 85BE		bne #2940 ; 0x005BC52E


005BB9B2  F85F 7E44		ldr r7, [pc, #-3652] ; 0xD
005BB9B6  5DF0     		ldrb r0, [r6, +r7]

005BB9B8  2867     		cmp r0, #103
005BB9BA  BF18 2000		nemov r0, #0
005BB9BE  BF08 2001		eqmov r0, #1

005BB9C2  2800     		cmp r0, #0
005BB9C4  F040 86AA		bne #3412 ; 0x005BC71C


005BB9C8  F85F 7E5C		ldr r7, [pc, #-3676] ; 0xD
005BB9CC  5DF0     		ldrb r0, [r6, +r7]

005BB9CE  2868     		cmp r0, #104
005BB9D0  BF18 2000		nemov r0, #0
005BB9D4  BF08 2001		eqmov r0, #1

005BB9D8  2800     		cmp r0, #0
005BB9DA  F040 86C7		bne #3470 ; 0x005BC76C


005BB9DE  F85F 7E70		ldr r7, [pc, #-3696] ; 0xD
005BB9E2  5DF0     		ldrb r0, [r6, +r7]

005BB9E4  2869     		cmp r0, #105
005BB9E6  BF18 2000		nemov r0, #0
005BB9EA  BF08 2001		eqmov r0, #1

005BB9EE  2800     		cmp r0, #0
005BB9F0  F040 8704		bne #3592 ; 0x005BC7FC


005BB9F4  F85F 7E88		ldr r7, [pc, #-3720] ; 0xD
005BB9F8  5DF0     		ldrb r0, [r6, +r7]

005BB9FA  2878     		cmp r0, #120
005BB9FC  BF18 2000		nemov r0, #0
005BBA00  BF08 2001		eqmov r0, #1

005BBA04  2800     		cmp r0, #0
005BBA06  F040 8778		bne #3824 ; 0x005BC8FA


005BBA0A  F85F 7E9C		ldr r7, [pc, #-3740] ; 0xD
005BBA0E  5DF0     		ldrb r0, [r6, +r7]

005BBA10  2879     		cmp r0, #121
005BBA12  BF18 2000		nemov r0, #0
005BBA16  BF08 2001		eqmov r0, #1

005BBA1A  2800     		cmp r0, #0
005BBA1C  F040 87F1		bne #4066 ; 0x005BCA02


005BBA20  F85F 7EB4		ldr r7, [pc, #-3764] ; 0xD
005BBA24  5DF0     		ldrb r0, [r6, +r7]

005BBA26  287A     		cmp r0, #122
005BBA28  BF18 2000		nemov r0, #0
005BBA2C  BF08 2001		eqmov r0, #1

005BBA30  2800     		cmp r0, #0
005BBA32  F041 8046		bne #4236 ; 0x005BCAC2


005BBA36  F85F 7EC8		ldr r7, [pc, #-3784] ; 0xD
005BBA3A  5DF0     		ldrb r0, [r6, +r7]

005BBA3C  287B     		cmp r0, #123
005BBA3E  BF18 2000		nemov r0, #0
005BBA42  BF08 2001		eqmov r0, #1

005BBA46  2800     		cmp r0, #0
005BBA48  F041 8056		bne #4268 ; 0x005BCAF8


005BBA4C  F85F 7EE0		ldr r7, [pc, #-3808] ; 0xD
005BBA50  5DF0     		ldrb r0, [r6, +r7]

005BBA52  2896     		cmp r0, #150
005BBA54  BF18 2000		nemov r0, #0
005BBA58  BF08 2001		eqmov r0, #1

005BBA5C  2800     		cmp r0, #0
005BBA5E  F041 80A3		bne #4422 ; 0x005BCBA8


005BBA62  F85F 7EF4		ldr r7, [pc, #-3828] ; 0xD
005BBA66  5DF0     		ldrb r0, [r6, +r7]

005BBA68  2897     		cmp r0, #151
005BBA6A  BF18 2000		nemov r0, #0
005BBA6E  BF08 2001		eqmov r0, #1

005BBA72  2800     		cmp r0, #0
005BBA74  F041 811B		bne #4662 ; 0x005BCCAE


005BBA78  F85F 7F0C		ldr r7, [pc, #-3852] ; 0xD
005BBA7C  5DF0     		ldrb r0, [r6, +r7]

005BBA7E  28C8     		cmp r0, #200
005BBA80  BF18 2000		nemov r0, #0
005BBA84  BF08 2001		eqmov r0, #1

005BBA88  2800     		cmp r0, #0
005BBA8A  F041 813E		bne #4732 ; 0x005BCD0A


005BBA8E  F85F 7F20		ldr r7, [pc, #-3872] ; 0xD
005BBA92  5DF0     		ldrb r0, [r6, +r7]

005BBA94  28D2     		cmp r0, #210
005BBA96  BF18 2000		nemov r0, #0
005BBA9A  BF08 2001		eqmov r0, #1

005BBA9E  2800     		cmp r0, #0
005BBAA0  F041 82CB		bne #5526 ; 0x005BD03A


005BBAA4  F85F 7F38		ldr r7, [pc, #-3896] ; 0xD
005BBAA8  5DF0     		ldrb r0, [r6, +r7]

005BBAAA  28DC     		cmp r0, #220
005BBAAC  BF18 2000		nemov r0, #0
005BBAB0  BF08 2001		eqmov r0, #1

005BBAB4  2800     		cmp r0, #0
005BBAB6  F041 8446		bne #6284 ; 0x005BD346


005BBABA  F85F 7F4C		ldr r7, [pc, #-3916] ; 0xD
005BBABE  5DF0     		ldrb r0, [r6, +r7]

005BBAC0  28DD     		cmp r0, #221
005BBAC2  BF18 2000		nemov r0, #0
005BBAC6  BF08 2001		eqmov r0, #1

005BBACA  2800     		cmp r0, #0
005BBACC  F041 84DA		bne #6580 ; 0x005BD484


005BBAD0  F001 BD0C		b #6680 ; 0x005BD4EC


005BBAD4  F85F 7ED4		ldr r7, [pc, #-3796] ; 0x150
005BBAD8  5DF0     		ldrb r0, [r6, +r7]

005BBADA  2800     		cmp r0, #0
005BBADC  BF08 2001		eqmov r0, #1
005BBAE0  BF18 2000		nemov r0, #0

005BBAE4  2800     		cmp r0, #0
005BBAE6  D006     		beq #12 ; 0x005BBAF6


005BBAEA  200A     		mov r0, #10 ; 10
005BBAEC  F85F 7F80		ldr r7, [pc, #-3968] ; 0xD
005BBAF0  55F0     		strb r0, [r6, +r7]

005BBAF2  F001 BCFB		b #6646 ; 0x005BD4EC


005BBAF6  F85F 7F9C		ldr r7, [pc, #-3996] ; 0x1
005BBAFA  5DF0     		ldrb r0, [r6, +r7]

005BBAFC  2800     		cmp r0, #0
005BBAFE  D00A     		beq #20 ; 0x005BBB16


005BBB02  2000     		mov r0, #0 ; 0
005BBB04  F85F 7FAC		ldr r7, [pc, #-4012] ; 0x1
005BBB08  55F0     		strb r0, [r6, +r7]

005BBB0A  2064     		mov r0, #100 ; 100
005BBB0C  F85F 7FA0		ldr r7, [pc, #-4000] ; 0xD
005BBB10  55F0     		strb r0, [r6, +r7]

005BBB12  F001 BCEB		b #6614 ; 0x005BD4EC


005BBB16  F85F 7FB4		ldr r7, [pc, #-4020] ; 0x3
005BBB1A  5DF0     		ldrb r0, [r6, +r7]

005BBB1C  2800     		cmp r0, #0
005BBB1E  D00A     		beq #20 ; 0x005BBB36


005BBB22  2000     		mov r0, #0 ; 0
005BBB24  F85F 7FC4		ldr r7, [pc, #-4036] ; 0x3
005BBB28  55F0     		strb r0, [r6, +r7]

005BBB2A  2078     		mov r0, #120 ; 120
005BBB2C  F85F 7FC0		ldr r7, [pc, #-4032] ; 0xD
005BBB30  55F0     		strb r0, [r6, +r7]

005BBB32  F001 BCDB		b #6582 ; 0x005BD4EC


005BBB36  F85F 7FAC		ldr r7, [pc, #-4012] ; 0x28
005BBB3A  5DF0     		ldrb r0, [r6, +r7]

005BBB3C  2800     		cmp r0, #0
005BBB3E  BF08 2000		eqmov r0, #0
005BBB42  BF18 2001		nemov r0, #1

005BBB46  2800     		cmp r0, #0
005BBB48  D006     		beq #12 ; 0x005BBB58


005BBB4C  2096     		mov r0, #150 ; 150
005BBB4E  F85F 7FE0		ldr r7, [pc, #-4064] ; 0xD
005BBB52  55F0     		strb r0, [r6, +r7]

005BBB54  F001 BCCA		b #6548 ; 0x005BD4EC


005BBB58  F85F 7F60		ldr r7, [pc, #-3936] ; 0x128
005BBB5C  5BF0     		ldrh r0, [r6, +r7]

005BBB5E  2800     		cmp r0, #0
005BBB60  BF18 2000		nemov r0, #0
005BBB64  BF08 2001		eqmov r0, #1

005BBB68  2800     		cmp r0, #0
005BBB6A  D00A     		beq #20 ; 0x005BBB82


005BBB6E  2001     		mov r0, #1 ; 1

005BBB70  4600     		mov r0, r0
005BBB72  F85F 4F38		ldr r4, [pc, #-3896] ; 0x490519
005BBB76  F044 0401		orr r4, r4, #1
005BBB7A  47A0     		blx r4

005BBB7C  F85F 7FF0		ldr r7, [pc, #-4080] ; 0x2C
005BBB80  51F0     		str r0, [r6, +r7]

005BBB82  2001     		mov r0, #1 ; 1

005BBB84  4600     		mov r0, r0
005BBB86  F85F 4F4C		ldr r4, [pc, #-3916] ; 0x490519
005BBB8A  F044 0401		orr r4, r4, #1
005BBB8E  47A0     		blx r4

005BBB90  F8DF 71FC		ldr r7, [pc, #+508] ; 0x2C
005BBB94  59F7     		ldr r7, [r6, +r7]
005BBB96  1BC0     		sub r0, r0, r7

005BBB98  F85F 76B0		ldr r7, [pc, #-1712] ; 0x16C
005BBB9C  51F0     		str r0, [r6, +r7]

005BBB9E  F85F 7FA4		ldr r7, [pc, #-4004] ; 0x128
005BBBA2  5BF0     		ldrh r0, [r6, +r7]

005BBBA4  B082     		sub sp, sp, #8
005BBBA6  F8CD 1000		str r1, [sp]
005BBBAA  2103     		mov r1, #3 ; 3
005BBBAC  FBB0 F0F1		udiv r0, r0, r1
005BBBB0  F8DD 1000		ldr r1, [sp]
005BBBB4  B002     		add sp, sp, #8

005BBBB6  F8DF 7244		ldr r7, [pc, #+580] ; 0x5BA160
005BBBBA  683F     		ldr r7, [r7]
005BBBBC  4378     		mul r0, r0, r7

005BBBBE  F8DF 7204		ldr r7, [pc, #+516] ; 0x188
005BBBC2  51F0     		str r0, [r6, +r7]

005BBBC4  F85F 76DC		ldr r7, [pc, #-1756] ; 0x16C
005BBBC8  59F0     		ldr r0, [r6, +r7]

005BBBCA  F8DF 71F8		ldr r7, [pc, #+504] ; 0x188
005BBBCE  59F7     		ldr r7, [r6, +r7]
005BBBD0  42B8     		cmp r0, r7
005BBBD2  BF38 2000		lomov r0, #0
005BBBD6  BF28 2001		hsmov r0, #1

005BBBDA  2800     		cmp r0, #0
005BBBDC  D00E     		beq #28 ; 0x005BBBFC


005BBBE0  2001     		mov r0, #1 ; 1

005BBBE2  4600     		mov r0, r0
005BBBE4  F85F 4FAC		ldr r4, [pc, #-4012] ; 0x490519
005BBBE8  F044 0401		orr r4, r4, #1
005BBBEC  47A0     		blx r4

005BBBEE  F8DF 71A0		ldr r7, [pc, #+416] ; 0x2C
005BBBF2  51F0     		str r0, [r6, +r7]

005BBBF4  2032     		mov r0, #50 ; 50
005BBBF6  F8DF 718C		ldr r7, [pc, #+396] ; 0xD
005BBBFA  55F0     		strb r0, [r6, +r7]

005BBBFC  F001 BC76		b #6380 ; 0x005BD4EC


005BBC00  F8DF 7178		ldr r7, [pc, #+376] ; 0x8
005BBC04  59F0     		ldr r0, [r6, +r7]

005BBC06  2700     		mov r7, #0 ; 0
005BBC08  42B8     		cmp r0, r7
005BBC0A  BF08 2000		eqmov r0, #0
005BBC0E  BF18 2001		nemov r0, #1

005BBC12  2800     		cmp r0, #0
005BBC14  D01C     		beq #56 ; 0x005BBC50


005BBC18  F8DF 01E4		ldr r0, [pc, #+484] ; 0x5BA164

005BBC1C  F8DF 7190		ldr r7, [pc, #+400] ; 0x15C
005BBC20  51F0     		str r0, [r6, +r7]

005BBC22  F8DF 01E0		ldr r0, [pc, #+480] ; 0x5BA168

005BBC26  F8DF 7198		ldr r7, [pc, #+408] ; 0x184
005BBC2A  51F0     		str r0, [r6, +r7]

005BBC2C  2001     		mov r0, #1 ; 1

005BBC2E  F8DF 7190		ldr r7, [pc, #+400] ; 0x184
005BBC32  59F3     		ldr r3, [r6, +r7]
005BBC34  F8DF 7178		ldr r7, [pc, #+376] ; 0x15C
005BBC38  59F2     		ldr r2, [r6, +r7]
005BBC3A  F04F 5180		mov r1, #268435456 ; 268435456
005BBC3E  4600     		mov r0, r0
005BBC40  F8DF 419C		ldr r4, [pc, #+412] ; 0x48FE35
005BBC44  F044 0401		orr r4, r4, #1
005BBC48  47A0     		blx r4

005BBC4A  F8DF 713C		ldr r7, [pc, #+316] ; 0x18
005BBC4E  51F0     		str r0, [r6, +r7]

005BBC50  2010     		mov r0, #16 ; 16
005BBC52  F8DF 7144		ldr r7, [pc, #+324] ; 0xBA
005BBC56  55F0     		strb r0, [r6, +r7]

005BBC58  2001     		mov r0, #1 ; 1
005BBC5A  F8DF 711C		ldr r7, [pc, #+284] ; 0x6
005BBC5E  53F0     		strh r0, [r6, +r7]

005BBC60  F8DF 7120		ldr r7, [pc, #+288] ; 0xD
005BBC64  5DF0     		ldrb r0, [r6, +r7]

005BBC66  1C40     		add r0, r0, #1

005BBC68  F8DF 7118		ldr r7, [pc, #+280] ; 0xD
005BBC6C  55F0     		strb r0, [r6, +r7]

005BBC6E  F001 BC3D		b #6266 ; 0x005BD4EC


005BBC72  F8DF 0194		ldr r0, [pc, #+404] ; 0x5BA180

005BBC76  F8DF 7114		ldr r7, [pc, #+276] ; 0x1C
005BBC7A  51F0     		str r0, [r6, +r7]

005BBC7C  F8DF 7104		ldr r7, [pc, #+260] ; 0xD
005BBC80  5DF0     		ldrb r0, [r6, +r7]

005BBC82  1C40     		add r0, r0, #1

005BBC84  F8DF 70F8		ldr r7, [pc, #+248] ; 0xC
005BBC88  55F0     		strb r0, [r6, +r7]

005BBC8A  20C8     		mov r0, #200 ; 200
005BBC8C  F8DF 70F4		ldr r7, [pc, #+244] ; 0xD
005BBC90  55F0     		strb r0, [r6, +r7]

005BBC92  F001 BC2B		b #6230 ; 0x005BD4EC


005BBC96  F8DF 70E0		ldr r7, [pc, #+224] ; 0x6
005BBC9A  5BF0     		ldrh r0, [r6, +r7]

005BBC9C  F8DF 7128		ldr r7, [pc, #+296] ; 0x18C
005BBCA0  53F0     		strh r0, [r6, +r7]

005BBCA2  2004     		mov r0, #4 ; 4
005BBCA4  F8DF 7120		ldr r7, [pc, #+288] ; 0x18C
005BBCA8  5BF5     		ldrh r5, [r6, +r7]
005BBCAA  F8DF 70EC		ldr r7, [pc, #+236] ; 0xBA
005BBCAE  EB07 0705		add r7, r7, r5, lsl #0
005BBCB2  55F0     		strb r0, [r6, +r7]

005BBCB4  F8DF 70C0		ldr r7, [pc, #+192] ; 0x6
005BBCB8  5BF0     		ldrh r0, [r6, +r7]

005BBCBA  1C40     		add r0, r0, #1

005BBCBC  F8DF 70B8		ldr r7, [pc, #+184] ; 0x6
005BBCC0  53F0     		strh r0, [r6, +r7]

005BBCC2  F8DF 70B4		ldr r7, [pc, #+180] ; 0x6
005BBCC6  5BF0     		ldrh r0, [r6, +r7]

005BBCC8  F8DF 7100		ldr r7, [pc, #+256] ; 0x18E
005BBCCC  53F0     		strh r0, [r6, +r7]

005BBCCE  2000     		mov r0, #0 ; 0
005BBCD0  F8DF 70F8		ldr r7, [pc, #+248] ; 0x18E
005BBCD4  5BF5     		ldrh r5, [r6, +r7]
005BBCD6  F8DF 70C0		ldr r7, [pc, #+192] ; 0xBA
005BBCDA  EB07 0705		add r7, r7, r5, lsl #0
005BBCDE  55F0     		strb r0, [r6, +r7]

005BBCE0  F8DF 70B8		ldr r7, [pc, #+184] ; 0x11C
005BBCE4  59F0     		ldr r0, [r6, +r7]

005BBCE6  2700     		mov r7, #0 ; 0
005BBCE8  42B8     		cmp r0, r7
005BBCEA  BF08 2000		eqmov r0, #0
005BBCEE  BF18 2001		nemov r0, #1

005BBCF2  2800     		cmp r0, #0
005BBCF4  D01E     		beq #60 ; 0x005BBD34


005BBCF8  F8DF 707C		ldr r7, [pc, #+124] ; 0x6
005BBCFC  5BF0     		ldrh r0, [r6, +r7]

005BBCFE  F8DF 70D0		ldr r7, [pc, #+208] ; 0x190
005BBD02  53F0     		strh r0, [r6, +r7]

005BBD04  F8DF 7070		ldr r7, [pc, #+112] ; 0x6
005BBD08  5BF0     		ldrh r0, [r6, +r7]
005BBD0A  F8DF 70C8		ldr r7, [pc, #+200] ; 0x192
005BBD0E  53F0     		strh r0, [r6, +r7]

005BBD10  F8DF 70C0		ldr r7, [pc, #+192] ; 0x192
005BBD14  5BF5     		ldrh r5, [r6, +r7]
005BBD16  F8DF 7080		ldr r7, [pc, #+128] ; 0xBA
005BBD1A  EB07 0705		add r7, r7, r5, lsl #0
005BBD1E  5DF0     		ldrb r0, [r6, +r7]

005BBD20  2780     		mov r7, #128 ; 128
005BBD22  4338     		orr r0, r0, r7

005BBD24  F8DF 70A8		ldr r7, [pc, #+168] ; 0x190
005BBD28  5BF5     		ldrh r5, [r6, +r7]
005BBD2A  F8DF 706C		ldr r7, [pc, #+108] ; 0xBA
005BBD2E  EB07 0705		add r7, r7, r5, lsl #0
005BBD32  55F0     		strb r0, [r6, +r7]

005BBD34  F8DF 7068		ldr r7, [pc, #+104] ; 0x120
005BBD38  59F0     		ldr r0, [r6, +r7]

005BBD3A  2700     		mov r7, #0 ; 0
005BBD3C  42B8     		cmp r0, r7
005BBD3E  BF08 2000		eqmov r0, #0
005BBD42  BF18 2001		nemov r0, #1

005BBD46  2800     		cmp r0, #0
005BBD48  D06A     		beq #212 ; 0x005BBE20


005BBD4C  F8DF 7028		ldr r7, [pc, #+40] ; 0x6
005BBD50  5BF0     		ldrh r0, [r6, +r7]

005BBD52  F8DF 7084		ldr r7, [pc, #+132] ; 0x194
005BBD56  53F0     		strh r0, [r6, +r7]

005BBD58  F8DF 701C		ldr r7, [pc, #+28] ; 0x6
005BBD5C  5BF0     		ldrh r0, [r6, +r7]
005BBD5E  F8DF 707C		ldr r7, [pc, #+124] ; 0x196
005BBD62  53F0     		strh r0, [r6, +r7]

005BBD64  F8DF 7074		ldr r7, [pc, #+116] ; 0x196
005BBD68  5BF5     		ldrh r5, [r6, +r7]
005BBD6A  F8DF 702C		ldr r7, [pc, #+44] ; 0xBA
005BBD6E  EB07 0705		add r7, r7, r5, lsl #0
005BBD72  5DF0     		ldrb r0, [r6, +r7]

005BBD74  E04A     		b #148

005BBD78  00000006		; 0x00000006
005BBD7C  00000008		; 0x00000008
005BBD80  0000000C		; 0x0000000C
005BBD84  0000000D		; 0x0000000D
005BBD88  00000018		; 0x00000018
005BBD8C  0000001C		; 0x0000001C
005BBD90  0000002C		; 0x0000002C
005BBD94  00000032		; 0x00000032
005BBD98  000000BA		; 0x000000BA
005BBD9C  0000011C		; 0x0000011C
005BBDA0  00000120		; 0x00000120
005BBDA4  00000148		; 0x00000148
005BBDA8  0000014C		; 0x0000014C
005BBDAC  00000156		; 0x00000156
005BBDB0  0000015C		; 0x0000015C
005BBDB4  0000017E		; 0x0000017E
005BBDB8  00000180		; 0x00000180
005BBDBC  00000182		; 0x00000182
005BBDC0  00000184		; 0x00000184
005BBDC4  00000188		; 0x00000188
005BBDC8  0000018C		; 0x0000018C
005BBDCC  0000018E		; 0x0000018E
005BBDD0  00000190		; 0x00000190
005BBDD4  00000192		; 0x00000192
005BBDD8  00000194		; 0x00000194
005BBDDC  00000196		; 0x00000196
005BBDE0  0048FE35		; 0x0048FE35
005BBDE4  00490795		; 0x00490795
005BBDE8  005BA14C		; 0x005BA14C
005BBDEC  005BA150		; 0x005BA150
005BBDF0  005BA154		; 0x005BA154
005BBDF4  005BA158		; 0x005BA158
005BBDF8  005BA15C		; 0x005BA15C
005BBDFC  005BA160		; 0x005BA160
005BBE00  005BA164		; 0x005BA164
005BBE04  005BA168		; 0x005BA168
005BBE08  005BA180		; 0x005BA180

005BBE0C  2740     		mov r7, #64 ; 64
005BBE0E  4338     		orr r0, r0, r7

005BBE10  F85F 703C		ldr r7, [pc, #-60] ; 0x194
005BBE14  5BF5     		ldrh r5, [r6, +r7]
005BBE16  F85F 7080		ldr r7, [pc, #-128] ; 0xBA
005BBE1A  EB07 0705		add r7, r7, r5, lsl #0
005BBE1E  55F0     		strb r0, [r6, +r7]

005BBE20  F85F 70AC		ldr r7, [pc, #-172] ; 0x6
005BBE24  5BF0     		ldrh r0, [r6, +r7]

005BBE26  F8DF 781C		ldr r7, [pc, #+2076] ; 0x198
005BBE2A  53F0     		strh r0, [r6, +r7]

005BBE2C  F85F 70B8		ldr r7, [pc, #-184] ; 0x6
005BBE30  5BF0     		ldrh r0, [r6, +r7]
005BBE32  F8DF 7814		ldr r7, [pc, #+2068] ; 0x19A
005BBE36  53F0     		strh r0, [r6, +r7]

005BBE38  F8DF 780C		ldr r7, [pc, #+2060] ; 0x19A
005BBE3C  5BF5     		ldrh r5, [r6, +r7]
005BBE3E  F85F 70A8		ldr r7, [pc, #-168] ; 0xBA
005BBE42  EB07 0705		add r7, r7, r5, lsl #0
005BBE46  5DF0     		ldrb r0, [r6, +r7]

005BBE48  2702     		mov r7, #2 ; 2
005BBE4A  4338     		orr r0, r0, r7

005BBE4C  F8DF 77F4		ldr r7, [pc, #+2036] ; 0x198
005BBE50  5BF5     		ldrh r5, [r6, +r7]
005BBE52  F85F 70BC		ldr r7, [pc, #-188] ; 0xBA
005BBE56  EB07 0705		add r7, r7, r5, lsl #0
005BBE5A  55F0     		strb r0, [r6, +r7]

005BBE5C  F85F 70E8		ldr r7, [pc, #-232] ; 0x6
005BBE60  5BF0     		ldrh r0, [r6, +r7]

005BBE62  1C40     		add r0, r0, #1

005BBE64  F85F 70F0		ldr r7, [pc, #-240] ; 0x6
005BBE68  53F0     		strh r0, [r6, +r7]

005BBE6A  F85F 70F4		ldr r7, [pc, #-244] ; 0x6
005BBE6E  5BF0     		ldrh r0, [r6, +r7]

005BBE70  F8DF 77D8		ldr r7, [pc, #+2008] ; 0x19C
005BBE74  53F0     		strh r0, [r6, +r7]

005BBE76  F8DF 77B4		ldr r7, [pc, #+1972] ; 0x128
005BBE7A  5BF0     		ldrh r0, [r6, +r7]

005BBE7C  B082     		sub sp, sp, #8
005BBE7E  F8CD 1000		str r1, [sp]
005BBE82  F44F 7180		mov r1, #256 ; 256
005BBE86  FBB0 F0F1		udiv r0, r0, r1
005BBE8A  F8DD 1000		ldr r1, [sp]
005BBE8E  B002     		add sp, sp, #8

005BBE90  F8DF 77B8		ldr r7, [pc, #+1976] ; 0x19C
005BBE94  5BF5     		ldrh r5, [r6, +r7]
005BBE96  F85F 7100		ldr r7, [pc, #-256] ; 0xBA
005BBE9A  EB07 0705		add r7, r7, r5, lsl #0
005BBE9E  55F0     		strb r0, [r6, +r7]

005BBEA0  F85F 712C		ldr r7, [pc, #-300] ; 0x6
005BBEA4  5BF0     		ldrh r0, [r6, +r7]

005BBEA6  1C40     		add r0, r0, #1

005BBEA8  F85F 7134		ldr r7, [pc, #-308] ; 0x6
005BBEAC  53F0     		strh r0, [r6, +r7]

005BBEAE  F85F 7138		ldr r7, [pc, #-312] ; 0x6
005BBEB2  5BF0     		ldrh r0, [r6, +r7]

005BBEB4  F8DF 7798		ldr r7, [pc, #+1944] ; 0x19E
005BBEB8  53F0     		strh r0, [r6, +r7]

005BBEBA  F8DF 7770		ldr r7, [pc, #+1904] ; 0x128
005BBEBE  5BF0     		ldrh r0, [r6, +r7]

005BBEC0  F8DF 778C		ldr r7, [pc, #+1932] ; 0x19E
005BBEC4  5BF5     		ldrh r5, [r6, +r7]
005BBEC6  F85F 7130		ldr r7, [pc, #-304] ; 0xBA
005BBECA  EB07 0705		add r7, r7, r5, lsl #0
005BBECE  55F0     		strb r0, [r6, +r7]

005BBED0  F85F 715C		ldr r7, [pc, #-348] ; 0x6
005BBED4  5BF0     		ldrh r0, [r6, +r7]

005BBED6  1C40     		add r0, r0, #1

005BBED8  F85F 7164		ldr r7, [pc, #-356] ; 0x6
005BBEDC  53F0     		strh r0, [r6, +r7]

005BBEDE  F85F 715C		ldr r7, [pc, #-348] ; 0xD
005BBEE2  5DF0     		ldrb r0, [r6, +r7]

005BBEE4  1C40     		add r0, r0, #1

005BBEE6  F85F 7164		ldr r7, [pc, #-356] ; 0xD
005BBEEA  55F0     		strb r0, [r6, +r7]

005BBEEC  F001 BAFE		b #5628 ; 0x005BD4EC


005BBEF0  F8DF 7734		ldr r7, [pc, #+1844] ; 0x124
005BBEF4  59F0     		ldr r0, [r6, +r7]
005BBEF6  F85F 716C		ldr r7, [pc, #-364] ; 0x1C
005BBEFA  51F0     		str r0, [r6, +r7]

005BBEFC  F85F 717C		ldr r7, [pc, #-380] ; 0xD
005BBF00  5DF0     		ldrb r0, [r6, +r7]

005BBF02  1C40     		add r0, r0, #1

005BBF04  F85F 7188		ldr r7, [pc, #-392] ; 0xC
005BBF08  55F0     		strb r0, [r6, +r7]

005BBF0A  20C8     		mov r0, #200 ; 200
005BBF0C  F85F 718C		ldr r7, [pc, #-396] ; 0xD
005BBF10  55F0     		strb r0, [r6, +r7]

005BBF12  F001 BAEB		b #5590 ; 0x005BD4EC


005BBF16  F85F 7194		ldr r7, [pc, #-404] ; 0xD
005BBF1A  5DF0     		ldrb r0, [r6, +r7]

005BBF1C  1C40     		add r0, r0, #1

005BBF1E  F85F 719C		ldr r7, [pc, #-412] ; 0xD
005BBF22  55F0     		strb r0, [r6, +r7]

005BBF24  F85F 718C		ldr r7, [pc, #-396] ; 0x11C
005BBF28  59F0     		ldr r0, [r6, +r7]

005BBF2A  2700     		mov r7, #0 ; 0
005BBF2C  42B8     		cmp r0, r7
005BBF2E  BF08 2000		eqmov r0, #0
005BBF32  BF18 2001		nemov r0, #1

005BBF36  2800     		cmp r0, #0
005BBF38  D010     		beq #32 ; 0x005BBF5C


005BBF3C  F85F 71A4		ldr r7, [pc, #-420] ; 0x11C
005BBF40  59F0     		ldr r0, [r6, +r7]
005BBF42  F85F 71B8		ldr r7, [pc, #-440] ; 0x1C
005BBF46  51F0     		str r0, [r6, +r7]

005BBF48  F85F 71C8		ldr r7, [pc, #-456] ; 0xD
005BBF4C  5DF0     		ldrb r0, [r6, +r7]
005BBF4E  F85F 71D0		ldr r7, [pc, #-464] ; 0xC
005BBF52  55F0     		strb r0, [r6, +r7]

005BBF54  20C8     		mov r0, #200 ; 200
005BBF56  F85F 71D4		ldr r7, [pc, #-468] ; 0xD
005BBF5A  55F0     		strb r0, [r6, +r7]

005BBF5C  F001 BAC6		b #5516 ; 0x005BD4EC


005BBF60  F85F 71E0		ldr r7, [pc, #-480] ; 0xD
005BBF64  5DF0     		ldrb r0, [r6, +r7]

005BBF66  1C40     		add r0, r0, #1

005BBF68  F85F 71E8		ldr r7, [pc, #-488] ; 0xD
005BBF6C  55F0     		strb r0, [r6, +r7]

005BBF6E  F85F 71D0		ldr r7, [pc, #-464] ; 0x120
005BBF72  59F0     		ldr r0, [r6, +r7]

005BBF74  2700     		mov r7, #0 ; 0
005BBF76  42B8     		cmp r0, r7
005BBF78  BF08 2000		eqmov r0, #0
005BBF7C  BF18 2001		nemov r0, #1

005BBF80  2800     		cmp r0, #0
005BBF82  D010     		beq #32 ; 0x005BBFA6


005BBF86  F85F 71E8		ldr r7, [pc, #-488] ; 0x120
005BBF8A  59F0     		ldr r0, [r6, +r7]
005BBF8C  F85F 7204		ldr r7, [pc, #-516] ; 0x1C
005BBF90  51F0     		str r0, [r6, +r7]

005BBF92  F85F 7210		ldr r7, [pc, #-528] ; 0xD
005BBF96  5DF0     		ldrb r0, [r6, +r7]
005BBF98  F85F 721C		ldr r7, [pc, #-540] ; 0xC
005BBF9C  55F0     		strb r0, [r6, +r7]

005BBF9E  20C8     		mov r0, #200 ; 200
005BBFA0  F85F 7220		ldr r7, [pc, #-544] ; 0xD
005BBFA4  55F0     		strb r0, [r6, +r7]

005BBFA6  F001 BAA1		b #5442 ; 0x005BD4EC


005BBFAA  F85F 7228		ldr r7, [pc, #-552] ; 0xD
005BBFAE  5DF0     		ldrb r0, [r6, +r7]

005BBFB0  1C40     		add r0, r0, #1

005BBFB2  F85F 7234		ldr r7, [pc, #-564] ; 0xC
005BBFB6  55F0     		strb r0, [r6, +r7]

005BBFB8  20D2     		mov r0, #210 ; 210
005BBFBA  F85F 7238		ldr r7, [pc, #-568] ; 0xD
005BBFBE  55F0     		strb r0, [r6, +r7]

005BBFC0  F001 BA94		b #5416 ; 0x005BD4EC


005BBFC4  2001     		mov r0, #1 ; 1
005BBFC6  F85F 7B1C		ldr r7, [pc, #-2844] ; 0xE
005BBFCA  55F0     		strb r0, [r6, +r7]

005BBFCC  2001     		mov r0, #1 ; 1

005BBFCE  4600     		mov r0, r0
005BBFD0  F8DF 4690		ldr r4, [pc, #+1680] ; 0x490519
005BBFD4  F044 0401		orr r4, r4, #1
005BBFD8  47A0     		blx r4

005BBFDA  F8DF 7648		ldr r7, [pc, #+1608] ; 0x104
005BBFDE  51F0     		str r0, [r6, +r7]

005BBFE0  F85F 7260		ldr r7, [pc, #-608] ; 0xD
005BBFE4  5DF0     		ldrb r0, [r6, +r7]

005BBFE6  1C40     		add r0, r0, #1

005BBFE8  F85F 726C		ldr r7, [pc, #-620] ; 0xC
005BBFEC  55F0     		strb r0, [r6, +r7]

005BBFEE  20DC     		mov r0, #220 ; 220
005BBFF0  F85F 7270		ldr r7, [pc, #-624] ; 0xD
005BBFF4  55F0     		strb r0, [r6, +r7]

005BBFF6  F001 BA79		b #5362 ; 0x005BD4EC


005BBFFA  2001     		mov r0, #1 ; 1

005BBFFC  4600     		mov r0, r0
005BBFFE  F8DF 4664		ldr r4, [pc, #+1636] ; 0x490519
005BC002  F044 0401		orr r4, r4, #1
005BC006  47A0     		blx r4

005BC008  F8DF 7618		ldr r7, [pc, #+1560] ; 0x104
005BC00C  59F7     		ldr r7, [r6, +r7]
005BC00E  1BC0     		sub r0, r0, r7

005BC010  F8DF 7668		ldr r7, [pc, #+1640] ; 0x5BA0D4
005BC014  683F     		ldr r7, [r7]
005BC016  42B8     		cmp r0, r7
005BC018  BF98 2000		lsmov r0, #0
005BC01C  BF88 2001		himov r0, #1

005BC020  2800     		cmp r0, #0
005BC022  D008     		beq #16 ; 0x005BC036


005BC026  F8DF 7658		ldr r7, [pc, #+1624] ; 0x5BA188
005BC02A  6838     		ldr r0, [r7]
005BC02C  F8DF 75E8		ldr r7, [pc, #+1512] ; 0x10
005BC030  51F0     		str r0, [r6, +r7]

005BC032  F001 BA5B		b #5302 ; 0x005BD4EC


005BC036  F85F 7B8C		ldr r7, [pc, #-2956] ; 0xE
005BC03A  5DF0     		ldrb r0, [r6, +r7]

005BC03C  2800     		cmp r0, #0
005BC03E  D002     		beq #4 ; 0x005BC046


005BC042  F001 BA53		b #5286 ; 0x005BD4EC


005BC046  2001     		mov r0, #1 ; 1

005BC048  4600     		mov r0, r0
005BC04A  F8DF 4618		ldr r4, [pc, #+1560] ; 0x490519
005BC04E  F044 0401		orr r4, r4, #1
005BC052  47A0     		blx r4

005BC054  F8DF 75CC		ldr r7, [pc, #+1484] ; 0x104
005BC058  59F7     		ldr r7, [r6, +r7]
005BC05A  1BC0     		sub r0, r0, r7

005BC05C  F85F 7B74		ldr r7, [pc, #-2932] ; 0x16C
005BC060  51F0     		str r0, [r6, +r7]

005BC062  F85F 7B78		ldr r7, [pc, #-2936] ; 0x16C
005BC066  59F0     		ldr r0, [r6, +r7]

005BC068  F8DF 4608		ldr r4, [pc, #+1544] ; 0x4A4509
005BC06C  F044 0401		orr r4, r4, #1
005BC070  47A0     		blx r4

005BC072  B082     		sub sp, sp, #8
005BC074  F8CD 1000		str r1, [sp]
005BC078  F8DF 7608		ldr r7, [pc, #+1544] ; 0x5BA18C
005BC07C  6839     		ldr r1, [r7]
005BC07E  F8DF 45F8		ldr r4, [pc, #+1528] ; 0x4A4585
005BC082  F044 0401		orr r4, r4, #1
005BC086  47A0     		blx r4
005BC088  F8DD 1000		ldr r1, [sp]
005BC08C  B002     		add sp, sp, #8

005BC08E  F8DF 75B0		ldr r7, [pc, #+1456] ; 0x158
005BC092  51F0     		str r0, [r6, +r7]

005BC094  2001     		mov r0, #1 ; 1

005BC096  4600     		mov r0, r0
005BC098  F8DF 45C8		ldr r4, [pc, #+1480] ; 0x490519
005BC09C  F044 0401		orr r4, r4, #1
005BC0A0  47A0     		blx r4

005BC0A2  F8DF 7580		ldr r7, [pc, #+1408] ; 0x104
005BC0A6  51F0     		str r0, [r6, +r7]

005BC0A8  F85F 7328		ldr r7, [pc, #-808] ; 0xD
005BC0AC  5DF0     		ldrb r0, [r6, +r7]

005BC0AE  1C40     		add r0, r0, #1

005BC0B0  F85F 7330		ldr r7, [pc, #-816] ; 0xD
005BC0B4  55F0     		strb r0, [r6, +r7]

005BC0B6  F001 BA19		b #5170 ; 0x005BD4EC


005BC0BA  2001     		mov r0, #1 ; 1

005BC0BC  4600     		mov r0, r0
005BC0BE  F8DF 45A4		ldr r4, [pc, #+1444] ; 0x490519
005BC0C2  F044 0401		orr r4, r4, #1
005BC0C6  47A0     		blx r4

005BC0C8  F8DF 7558		ldr r7, [pc, #+1368] ; 0x104
005BC0CC  59F7     		ldr r7, [r6, +r7]
005BC0CE  1BC0     		sub r0, r0, r7

005BC0D0  F85F 72D8		ldr r7, [pc, #-728] ; 0x5BA160
005BC0D4  683F     		ldr r7, [r7]
005BC0D6  42B8     		cmp r0, r7
005BC0D8  BF28 2000		hsmov r0, #0
005BC0DC  BF38 2001		lomov r0, #1

005BC0E0  2800     		cmp r0, #0
005BC0E2  D002     		beq #4 ; 0x005BC0EA


005BC0E6  F001 BA01		b #5122 ; 0x005BD4EC


005BC0EA  F85F 7370		ldr r7, [pc, #-880] ; 0x8
005BC0EE  59F0     		ldr r0, [r6, +r7]

005BC0F0  2700     		mov r7, #0 ; 0
005BC0F2  42B8     		cmp r0, r7
005BC0F4  BF08 2000		eqmov r0, #0
005BC0F8  BF18 2001		nemov r0, #1

005BC0FC  2800     		cmp r0, #0
005BC0FE  D01C     		beq #56 ; 0x005BC13A


005BC102  F85F 0304		ldr r0, [pc, #-772] ; 0x5BA164

005BC106  F85F 7358		ldr r7, [pc, #-856] ; 0x15C
005BC10A  51F0     		str r0, [r6, +r7]

005BC10C  F8DF 0578		ldr r0, [pc, #+1400] ; 0x5BA190

005BC110  F85F 7354		ldr r7, [pc, #-852] ; 0x184
005BC114  51F0     		str r0, [r6, +r7]

005BC116  2001     		mov r0, #1 ; 1

005BC118  F85F 735C		ldr r7, [pc, #-860] ; 0x184
005BC11C  59F3     		ldr r3, [r6, +r7]
005BC11E  F85F 7370		ldr r7, [pc, #-880] ; 0x15C
005BC122  59F2     		ldr r2, [r6, +r7]
005BC124  F04F 5180		mov r1, #268435456 ; 268435456
005BC128  4600     		mov r0, r0
005BC12A  F85F 434C		ldr r4, [pc, #-844] ; 0x48FE35
005BC12E  F044 0401		orr r4, r4, #1
005BC132  47A0     		blx r4

005BC134  F85F 73B0		ldr r7, [pc, #-944] ; 0x18
005BC138  51F0     		str r0, [r6, +r7]

005BC13A  2001     		mov r0, #1 ; 1
005BC13C  F8DF 74FC		ldr r7, [pc, #+1276] ; 0x150
005BC140  55F0     		strb r0, [r6, +r7]

005BC142  2000     		mov r0, #0 ; 0
005BC144  F85F 73C4		ldr r7, [pc, #-964] ; 0xD
005BC148  55F0     		strb r0, [r6, +r7]

005BC14A  F001 B9CF		b #5022 ; 0x005BD4EC


005BC14E  F85F 73D4		ldr r7, [pc, #-980] ; 0x8
005BC152  59F0     		ldr r0, [r6, +r7]

005BC154  2700     		mov r7, #0 ; 0
005BC156  42B8     		cmp r0, r7
005BC158  BF08 2000		eqmov r0, #0
005BC15C  BF18 2001		nemov r0, #1

005BC160  2800     		cmp r0, #0
005BC162  D01C     		beq #56 ; 0x005BC19E


005BC166  F85F 0368		ldr r0, [pc, #-872] ; 0x5BA164

005BC16A  F85F 73BC		ldr r7, [pc, #-956] ; 0x15C
005BC16E  51F0     		str r0, [r6, +r7]

005BC170  F8DF 0518		ldr r0, [pc, #+1304] ; 0x5BA1A8

005BC174  F85F 73B8		ldr r7, [pc, #-952] ; 0x184
005BC178  51F0     		str r0, [r6, +r7]

005BC17A  2001     		mov r0, #1 ; 1

005BC17C  F85F 73C0		ldr r7, [pc, #-960] ; 0x184
005BC180  59F3     		ldr r3, [r6, +r7]
005BC182  F85F 73D4		ldr r7, [pc, #-980] ; 0x15C
005BC186  59F2     		ldr r2, [r6, +r7]
005BC188  F04F 5180		mov r1, #268435456 ; 268435456
005BC18C  4600     		mov r0, r0
005BC18E  F85F 43B0		ldr r4, [pc, #-944] ; 0x48FE35
005BC192  F044 0401		orr r4, r4, #1
005BC196  47A0     		blx r4

005BC198  F85F 7414		ldr r7, [pc, #-1044] ; 0x18
005BC19C  51F0     		str r0, [r6, +r7]

005BC19E  20C0     		mov r0, #192 ; 192
005BC1A0  F85F 740C		ldr r7, [pc, #-1036] ; 0xBA
005BC1A4  55F0     		strb r0, [r6, +r7]

005BC1A6  2000     		mov r0, #0 ; 0
005BC1A8  F8DF 7474		ldr r7, [pc, #+1140] ; 0xBB
005BC1AC  55F0     		strb r0, [r6, +r7]

005BC1AE  2002     		mov r0, #2 ; 2
005BC1B0  F85F 743C		ldr r7, [pc, #-1084] ; 0x6
005BC1B4  53F0     		strh r0, [r6, +r7]

005BC1B6  2001     		mov r0, #1 ; 1
005BC1B8  F85F 7D0C		ldr r7, [pc, #-3340] ; 0x29
005BC1BC  55F0     		strb r0, [r6, +r7]

005BC1BE  2001     		mov r0, #1 ; 1

005BC1C0  4600     		mov r0, r0
005BC1C2  F8DF 44A0		ldr r4, [pc, #+1184] ; 0x490519
005BC1C6  F044 0401		orr r4, r4, #1
005BC1CA  47A0     		blx r4

005BC1CC  F8DF 7454		ldr r7, [pc, #+1108] ; 0x104
005BC1D0  51F0     		str r0, [r6, +r7]

005BC1D2  F85F 7450		ldr r7, [pc, #-1104] ; 0xD
005BC1D6  5DF0     		ldrb r0, [r6, +r7]

005BC1D8  1C40     		add r0, r0, #1

005BC1DA  F85F 745C		ldr r7, [pc, #-1116] ; 0xC
005BC1DE  55F0     		strb r0, [r6, +r7]

005BC1E0  20DC     		mov r0, #220 ; 220
005BC1E2  F85F 7460		ldr r7, [pc, #-1120] ; 0xD
005BC1E6  55F0     		strb r0, [r6, +r7]

005BC1E8  F001 B980		b #4864 ; 0x005BD4EC


005BC1EC  2001     		mov r0, #1 ; 1

005BC1EE  4600     		mov r0, r0
005BC1F0  F8DF 4470		ldr r4, [pc, #+1136] ; 0x490519
005BC1F4  F044 0401		orr r4, r4, #1
005BC1F8  47A0     		blx r4

005BC1FA  F8DF 7428		ldr r7, [pc, #+1064] ; 0x104
005BC1FE  59F7     		ldr r7, [r6, +r7]
005BC200  1BC0     		sub r0, r0, r7

005BC202  F8DF 7478		ldr r7, [pc, #+1144] ; 0x5BA0D4
005BC206  683F     		ldr r7, [r7]
005BC208  42B8     		cmp r0, r7
005BC20A  BF98 2000		lsmov r0, #0
005BC20E  BF88 2001		himov r0, #1

005BC212  2800     		cmp r0, #0
005BC214  D008     		beq #16 ; 0x005BC228


005BC218  F8DF 7474		ldr r7, [pc, #+1140] ; 0x5BA1C0
005BC21C  6838     		ldr r0, [r7]
005BC21E  F8DF 73F8		ldr r7, [pc, #+1016] ; 0x10
005BC222  51F0     		str r0, [r6, +r7]

005BC224  F001 B962		b #4804 ; 0x005BD4EC


005BC228  F85F 7D7C		ldr r7, [pc, #-3452] ; 0x29
005BC22C  5DF0     		ldrb r0, [r6, +r7]

005BC22E  2800     		cmp r0, #0
005BC230  D002     		beq #4 ; 0x005BC238


005BC234  F001 B95A		b #4788 ; 0x005BD4EC


005BC238  2001     		mov r0, #1 ; 1

005BC23A  4600     		mov r0, r0
005BC23C  F8DF 4424		ldr r4, [pc, #+1060] ; 0x490519
005BC240  F044 0401		orr r4, r4, #1
005BC244  47A0     		blx r4

005BC246  F8DF 73DC		ldr r7, [pc, #+988] ; 0x104
005BC24A  59F7     		ldr r7, [r6, +r7]
005BC24C  1BC0     		sub r0, r0, r7

005BC24E  F85F 7D64		ldr r7, [pc, #-3428] ; 0x16C
005BC252  51F0     		str r0, [r6, +r7]

005BC254  F85F 7D6C		ldr r7, [pc, #-3436] ; 0x16C
005BC258  59F0     		ldr r0, [r6, +r7]

005BC25A  F8DF 4418		ldr r4, [pc, #+1048] ; 0x4A4509
005BC25E  F044 0401		orr r4, r4, #1
005BC262  47A0     		blx r4

005BC264  B082     		sub sp, sp, #8
005BC266  F8CD 1000		str r1, [sp]
005BC26A  F8DF 7418		ldr r7, [pc, #+1048] ; 0x5BA18C
005BC26E  6839     		ldr r1, [r7]
005BC270  F8DF 4404		ldr r4, [pc, #+1028] ; 0x4A4585
005BC274  F044 0401		orr r4, r4, #1
005BC278  47A0     		blx r4
005BC27A  F8DD 1000		ldr r1, [sp]
005BC27E  B002     		add sp, sp, #8

005BC280  F8DF 73BC		ldr r7, [pc, #+956] ; 0x158
005BC284  51F0     		str r0, [r6, +r7]

005BC286  F85F 750C		ldr r7, [pc, #-1292] ; 0x8
005BC28A  59F0     		ldr r0, [r6, +r7]

005BC28C  2700     		mov r7, #0 ; 0
005BC28E  42B8     		cmp r0, r7
005BC290  BF08 2000		eqmov r0, #0
005BC294  BF18 2001		nemov r0, #1

005BC298  2800     		cmp r0, #0
005BC29A  D01C     		beq #56 ; 0x005BC2D6


005BC29E  F85F 04A0		ldr r0, [pc, #-1184] ; 0x5BA164

005BC2A2  F85F 74F4		ldr r7, [pc, #-1268] ; 0x15C
005BC2A6  51F0     		str r0, [r6, +r7]

005BC2A8  F8DF 03E8		ldr r0, [pc, #+1000] ; 0x5BA1C4

005BC2AC  F85F 74F0		ldr r7, [pc, #-1264] ; 0x184
005BC2B0  51F0     		str r0, [r6, +r7]

005BC2B2  2001     		mov r0, #1 ; 1

005BC2B4  F85F 74F8		ldr r7, [pc, #-1272] ; 0x184
005BC2B8  59F3     		ldr r3, [r6, +r7]
005BC2BA  F85F 750C		ldr r7, [pc, #-1292] ; 0x15C
005BC2BE  59F2     		ldr r2, [r6, +r7]
005BC2C0  F04F 5180		mov r1, #268435456 ; 268435456
005BC2C4  4600     		mov r0, r0
005BC2C6  F85F 44E8		ldr r4, [pc, #-1256] ; 0x48FE35
005BC2CA  F044 0401		orr r4, r4, #1
005BC2CE  47A0     		blx r4

005BC2D0  F85F 754C		ldr r7, [pc, #-1356] ; 0x18
005BC2D4  51F0     		str r0, [r6, +r7]

005BC2D6  2000     		mov r0, #0 ; 0
005BC2D8  F85F 7558		ldr r7, [pc, #-1368] ; 0xD
005BC2DC  55F0     		strb r0, [r6, +r7]

005BC2DE  F001 B905		b #4618 ; 0x005BD4EC


005BC2E2  F85F 7568		ldr r7, [pc, #-1384] ; 0x8
005BC2E6  59F0     		ldr r0, [r6, +r7]

005BC2E8  2700     		mov r7, #0 ; 0
005BC2EA  42B8     		cmp r0, r7
005BC2EC  BF08 2000		eqmov r0, #0
005BC2F0  BF18 2001		nemov r0, #1

005BC2F4  2800     		cmp r0, #0
005BC2F6  D01C     		beq #56 ; 0x005BC332


005BC2FA  F85F 04FC		ldr r0, [pc, #-1276] ; 0x5BA164

005BC2FE  F85F 7550		ldr r7, [pc, #-1360] ; 0x15C
005BC302  51F0     		str r0, [r6, +r7]

005BC304  F8DF 0390		ldr r0, [pc, #+912] ; 0x5BA1D8

005BC308  F85F 754C		ldr r7, [pc, #-1356] ; 0x184
005BC30C  51F0     		str r0, [r6, +r7]

005BC30E  2001     		mov r0, #1 ; 1

005BC310  F85F 7554		ldr r7, [pc, #-1364] ; 0x184
005BC314  59F3     		ldr r3, [r6, +r7]
005BC316  F85F 7568		ldr r7, [pc, #-1384] ; 0x15C
005BC31A  59F2     		ldr r2, [r6, +r7]
005BC31C  F04F 5180		mov r1, #268435456 ; 268435456
005BC320  4600     		mov r0, r0
005BC322  F85F 4544		ldr r4, [pc, #-1348] ; 0x48FE35
005BC326  F044 0401		orr r4, r4, #1
005BC32A  47A0     		blx r4

005BC32C  F85F 75A8		ldr r7, [pc, #-1448] ; 0x18
005BC330  51F0     		str r0, [r6, +r7]

005BC332  F8DF 7300		ldr r7, [pc, #+768] ; 0x134
005BC336  59F0     		ldr r0, [r6, +r7]

005BC338  2700     		mov r7, #0 ; 0
005BC33A  42B8     		cmp r0, r7
005BC33C  BF08 2000		eqmov r0, #0
005BC340  BF18 2001		nemov r0, #1

005BC344  2800     		cmp r0, #0
005BC346  D050     		beq #160 ; 0x005BC3EA


005BC34A  F8DF 72E8		ldr r7, [pc, #+744] ; 0x134
005BC34E  59F0     		ldr r0, [r6, +r7]

005BC350  4600     		mov r0, r0
005BC352  F8DF 431C		ldr r4, [pc, #+796] ; 0x4909F1
005BC356  F044 0401		orr r4, r4, #1
005BC35A  47A0     		blx r4

005BC35C  2800     		cmp r0, #0
005BC35E  BF08 2000		eqmov r0, #0
005BC362  BF18 2001		nemov r0, #1

005BC366  2800     		cmp r0, #0
005BC368  D03F     		beq #126 ; 0x005BC3EA


005BC36C  F8DF 032C		ldr r0, [pc, #+812] ; 0x5BA1F0

005BC370  F85F 75C4		ldr r7, [pc, #-1476] ; 0x15C
005BC374  51F0     		str r0, [r6, +r7]

005BC376  F8DF 72BC		ldr r7, [pc, #+700] ; 0x134
005BC37A  59F0     		ldr r0, [r6, +r7]

005BC37C  2200     		mov r2, #0 ; 0
005BC37E  F85F 75D0		ldr r7, [pc, #-1488] ; 0x15C
005BC382  59F1     		ldr r1, [r6, +r7]
005BC384  4600     		mov r0, r0
005BC386  F8DF 42E4		ldr r4, [pc, #+740] ; 0x4908DD
005BC38A  F044 0401		orr r4, r4, #1
005BC38E  47A0     		blx r4

005BC390  2700     		mov r7, #0 ; 0
005BC392  42B8     		cmp r0, r7
005BC394  BF18 2000		nemov r0, #0
005BC398  BF08 2001		eqmov r0, #1

005BC39C  2800     		cmp r0, #0
005BC39E  D024     		beq #72 ; 0x005BC3EA


005BC3A2  F8DF 02FC		ldr r0, [pc, #+764] ; 0x5BA1F2

005BC3A6  F85F 75F8		ldr r7, [pc, #-1528] ; 0x15C
005BC3AA  51F0     		str r0, [r6, +r7]

005BC3AC  F8DF 7284		ldr r7, [pc, #+644] ; 0x134
005BC3B0  59F0     		ldr r0, [r6, +r7]

005BC3B2  2200     		mov r2, #0 ; 0
005BC3B4  F85F 7608		ldr r7, [pc, #-1544] ; 0x15C
005BC3B8  59F1     		ldr r1, [r6, +r7]
005BC3BA  4600     		mov r0, r0
005BC3BC  F8DF 42AC		ldr r4, [pc, #+684] ; 0x4908DD
005BC3C0  F044 0401		orr r4, r4, #1
005BC3C4  47A0     		blx r4

005BC3C6  2700     		mov r7, #0 ; 0
005BC3C8  42B8     		cmp r0, r7
005BC3CA  BF18 2000		nemov r0, #0
005BC3CE  BF08 2001		eqmov r0, #1

005BC3D2  2800     		cmp r0, #0
005BC3D4  D009     		beq #18 ; 0x005BC3EA


005BC3D8  F85F 7658		ldr r7, [pc, #-1624] ; 0xD
005BC3DC  5DF0     		ldrb r0, [r6, +r7]

005BC3DE  1C40     		add r0, r0, #1

005BC3E0  F85F 7660		ldr r7, [pc, #-1632] ; 0xD
005BC3E4  55F0     		strb r0, [r6, +r7]

005BC3E6  F001 B881		b #4354 ; 0x005BD4EC


005BC3EA  F8DF 72B8		ldr r7, [pc, #+696] ; 0x5BA1F4
005BC3EE  6838     		ldr r0, [r7]

005BC3F0  4600     		mov r0, r0
005BC3F2  F8DF 4274		ldr r4, [pc, #+628] ; 0x490561
005BC3F6  F044 0401		orr r4, r4, #1
005BC3FA  47A0     		blx r4

005BC3FC  F85F 7678		ldr r7, [pc, #-1656] ; 0x18
005BC400  51F0     		str r0, [r6, +r7]

005BC402  2000     		mov r0, #0 ; 0
005BC404  F85F 7684		ldr r7, [pc, #-1668] ; 0xD
005BC408  55F0     		strb r0, [r6, +r7]

005BC40A  F001 B86F		b #4318 ; 0x005BD4EC


005BC40E  2030     		mov r0, #48 ; 48
005BC410  F85F 767C		ldr r7, [pc, #-1660] ; 0xBA
005BC414  55F0     		strb r0, [r6, +r7]

005BC416  F85F 7F38		ldr r7, [pc, #-3896] ; 0x130
005BC41A  5DF0     		ldrb r0, [r6, +r7]

005BC41C  2703     		mov r7, #3 ; 3
005BC41E  4038     		and r0, r0, r7

005BC420  2702     		mov r7, #2 ; 2
005BC422  4378     		mul r0, r0, r7

005BC424  F85F 7690		ldr r7, [pc, #-1680] ; 0xBA
005BC428  5DF7     		ldrb r7, [r6, +r7]
005BC42A  4338     		orr r0, r0, r7

005BC42C  F85F 7698		ldr r7, [pc, #-1688] ; 0xBA
005BC430  55F0     		strb r0, [r6, +r7]

005BC432  F8DF 71FC		ldr r7, [pc, #+508] ; 0x12C
005BC436  59F0     		ldr r0, [r6, +r7]

005BC438  F44F 7780		mov r7, #256 ; 256
005BC43C  4038     		and r0, r0, r7

005BC43E  2800     		cmp r0, #0
005BC440  BF18 2001		nemov r0, #1
005BC444  BF08 2000		eqmov r0, #0

005BC448  2800     		cmp r0, #0
005BC44A  D008     		beq #16 ; 0x005BC45E


005BC44E  F85F 76B8		ldr r7, [pc, #-1720] ; 0xBA
005BC452  5DF0     		ldrb r0, [r6, +r7]

005BC454  2701     		mov r7, #1 ; 1
005BC456  4338     		orr r0, r0, r7

005BC458  F85F 76C4		ldr r7, [pc, #-1732] ; 0xBA
005BC45C  55F0     		strb r0, [r6, +r7]

005BC45E  F8DF 71D0		ldr r7, [pc, #+464] ; 0x12C
005BC462  59F0     		ldr r0, [r6, +r7]

005BC464  F44F 7700		mov r7, #512 ; 512
005BC468  4038     		and r0, r0, r7

005BC46A  2800     		cmp r0, #0
005BC46C  BF18 2001		nemov r0, #1
005BC470  BF08 2000		eqmov r0, #0

005BC474  2800     		cmp r0, #0
005BC476  D008     		beq #16 ; 0x005BC48A


005BC47A  F85F 76E4		ldr r7, [pc, #-1764] ; 0xBA
005BC47E  5DF0     		ldrb r0, [r6, +r7]

005BC480  2708     		mov r7, #8 ; 8
005BC482  4338     		orr r0, r0, r7

005BC484  F85F 76F0		ldr r7, [pc, #-1776] ; 0xBA
005BC488  55F0     		strb r0, [r6, +r7]

005BC48A  2001     		mov r0, #1 ; 1
005BC48C  F85F 7718		ldr r7, [pc, #-1816] ; 0x6
005BC490  53F0     		strh r0, [r6, +r7]

005BC492  F85F 7718		ldr r7, [pc, #-1816] ; 0x8
005BC496  59F0     		ldr r0, [r6, +r7]

005BC498  2700     		mov r7, #0 ; 0
005BC49A  42B8     		cmp r0, r7
005BC49C  BF08 2000		eqmov r0, #0
005BC4A0  BF18 2001		nemov r0, #1

005BC4A4  2800     		cmp r0, #0
005BC4A6  D02F     		beq #94 ; 0x005BC508


005BC4AA  F85F 7730		ldr r7, [pc, #-1840] ; 0x8
005BC4AE  59F0     		ldr r0, [r6, +r7]

005BC4B0  B082     		sub sp, sp, #8
005BC4B2  F8DF 7180		ldr r7, [pc, #+384] ; 0x134
005BC4B6  59F7     		ldr r7, [r6, +r7]
005BC4B8  F8CD 7000		str r7, [sp]
005BC4BC  2332     		mov r3, #50 ; 50
005BC4BE  F8DF 71E8		ldr r7, [pc, #+488] ; 0x5BA1F8
005BC4C2  463A     		mov r2, r7
005BC4C4  2180     		mov r1, #128 ; 128
005BC4C6  4600     		mov r0, r0
005BC4C8  F8DF 4194		ldr r4, [pc, #+404] ; 0x48F96D
005BC4CC  F044 0401		orr r4, r4, #1
005BC4D0  47A0     		blx r4
005BC4D2  B002     		add sp, sp, #8

005BC4D4  F85F 7750		ldr r7, [pc, #-1872] ; 0x18
005BC4D8  51F0     		str r0, [r6, +r7]

005BC4DA  F8DF 01D0		ldr r0, [pc, #+464] ; 0x5BA204

005BC4DE  F85F 7730		ldr r7, [pc, #-1840] ; 0x15C
005BC4E2  51F0     		str r0, [r6, +r7]

005BC4E4  2001     		mov r0, #1 ; 1

005BC4E6  F85F 776C		ldr r7, [pc, #-1900] ; 0x8
005BC4EA  59F3     		ldr r3, [r6, +r7]
005BC4EC  F85F 7740		ldr r7, [pc, #-1856] ; 0x15C
005BC4F0  59F2     		ldr r2, [r6, +r7]
005BC4F2  F44F 5180		mov r1, #4096 ; 4096
005BC4F6  4600     		mov r0, r0
005BC4F8  F85F 471C		ldr r4, [pc, #-1820] ; 0x48FE35
005BC4FC  F044 0401		orr r4, r4, #1
005BC500  47A0     		blx r4

005BC502  F85F 777C		ldr r7, [pc, #-1916] ; 0x18
005BC506  51F0     		str r0, [r6, +r7]

005BC508  F8DF 7128		ldr r7, [pc, #+296] ; 0x134
005BC50C  59F0     		ldr r0, [r6, +r7]
005BC50E  F85F 7784		ldr r7, [pc, #-1924] ; 0x1C
005BC512  51F0     		str r0, [r6, +r7]

005BC514  F85F 7794		ldr r7, [pc, #-1940] ; 0xD
005BC518  5DF0     		ldrb r0, [r6, +r7]

005BC51A  1C40     		add r0, r0, #1

005BC51C  F85F 77A0		ldr r7, [pc, #-1952] ; 0xC
005BC520  55F0     		strb r0, [r6, +r7]

005BC522  20C8     		mov r0, #200 ; 200
005BC524  F85F 77A4		ldr r7, [pc, #-1956] ; 0xD
005BC528  55F0     		strb r0, [r6, +r7]

005BC52A  F000 BFDF		b #4030 ; 0x005BD4EC


005BC52E  F85F 7798		ldr r7, [pc, #-1944] ; 0xBA
005BC532  5DF0     		ldrb r0, [r6, +r7]

005BC534  2706     		mov r7, #6 ; 6
005BC536  4038     		and r0, r0, r7

005BC538  2800     		cmp r0, #0
005BC53A  BF08 2000		eqmov r0, #0
005BC53E  BF18 2001		nemov r0, #1

005BC542  2800     		cmp r0, #0
005BC544  D041     		beq #130 ; 0x005BC5CA


005BC548  F8DF 70D0		ldr r7, [pc, #+208] ; 0x42
005BC54C  5BF0     		ldrh r0, [r6, +r7]

005BC54E  1C40     		add r0, r0, #1

005BC550  F8DF 70C8		ldr r7, [pc, #+200] ; 0x42
005BC554  53F0     		strh r0, [r6, +r7]

005BC556  F85F 77E0		ldr r7, [pc, #-2016] ; 0x6
005BC55A  5BF0     		ldrh r0, [r6, +r7]

005BC55C  F8DF 70F4		ldr r7, [pc, #+244] ; 0x1A0
005BC560  53F0     		strh r0, [r6, +r7]

005BC562  F8DF 70B8		ldr r7, [pc, #+184] ; 0x42
005BC566  5BF0     		ldrh r0, [r6, +r7]

005BC568  B082     		sub sp, sp, #8
005BC56A  F8CD 1000		str r1, [sp]
005BC56E  F44F 7180		mov r1, #256 ; 256
005BC572  FBB0 F0F1		udiv r0, r0, r1
005BC576  F8DD 1000		ldr r1, [sp]
005BC57A  B002     		add sp, sp, #8

005BC57C  F8DF 70D4		ldr r7, [pc, #+212] ; 0x1A0
005BC580  5BF5     		ldrh r5, [r6, +r7]
005BC582  F85F 77EC		ldr r7, [pc, #-2028] ; 0xBA
005BC586  EB07 0705		add r7, r7, r5, lsl #0
005BC58A  55F0     		strb r0, [r6, +r7]

005BC58C  F85F 7818		ldr r7, [pc, #-2072] ; 0x6
005BC590  5BF0     		ldrh r0, [r6, +r7]

005BC592  1C40     		add r0, r0, #1

005BC594  F85F 7820		ldr r7, [pc, #-2080] ; 0x6
005BC598  53F0     		strh r0, [r6, +r7]

005BC59A  F85F 7824		ldr r7, [pc, #-2084] ; 0x6
005BC59E  5BF0     		ldrh r0, [r6, +r7]

005BC5A0  F8DF 70B4		ldr r7, [pc, #+180] ; 0x1A2
005BC5A4  53F0     		strh r0, [r6, +r7]

005BC5A6  F8DF 7074		ldr r7, [pc, #+116] ; 0x42
005BC5AA  5BF0     		ldrh r0, [r6, +r7]

005BC5AC  F8DF 70A8		ldr r7, [pc, #+168] ; 0x1A2
005BC5B0  5BF5     		ldrh r5, [r6, +r7]
005BC5B2  F85F 781C		ldr r7, [pc, #-2076] ; 0xBA
005BC5B6  EB07 0705		add r7, r7, r5, lsl #0
005BC5BA  55F0     		strb r0, [r6, +r7]

005BC5BC  F85F 7848		ldr r7, [pc, #-2120] ; 0x6
005BC5C0  5BF0     		ldrh r0, [r6, +r7]

005BC5C2  1C40     		add r0, r0, #1

005BC5C4  F85F 7850		ldr r7, [pc, #-2128] ; 0x6
005BC5C8  53F0     		strh r0, [r6, +r7]

005BC5CA  F8DF 706C		ldr r7, [pc, #+108] ; 0x13C
005BC5CE  59F0     		ldr r0, [r6, +r7]

005BC5D0  B082     		sub sp, sp, #8
005BC5D2  F8CD 0000		str r0, [sp]
005BC5D6  2040     		mov r0, #64 ; 64

005BC5D8  F85F 7864		ldr r7, [pc, #-2148] ; 0x6
005BC5DC  5BF7     		ldrh r7, [r6, +r7]
005BC5DE  1BC0     		sub r0, r0, r7

005BC5E0  4607     		mov r7, r0
005BC5E2  F8DD 0000		ldr r0, [sp]
005BC5E6  B002     		add sp, sp, #8
005BC5E8  42B8     		cmp r0, r7
005BC5EA  BF98 2000		lsmov r0, #0
005BC5EE  BF88 2001		himov r0, #1

005BC5F2  2800     		cmp r0, #0
005BC5F4  D008     		beq #16 ; 0x005BC608


005BC5F8  F8DF 70B4		ldr r7, [pc, #+180] ; 0x5BA208
005BC5FC  6838     		ldr r0, [r7]
005BC5FE  F8DF 7018		ldr r7, [pc, #+24] ; 0x10
005BC602  51F0     		str r0, [r6, +r7]

005BC604  F000 BF72		b #3812 ; 0x005BD4EC


005BC608  F85F 7894		ldr r7, [pc, #-2196] ; 0x6
005BC60C  5BF0     		ldrh r0, [r6, +r7]
005BC60E  F8DF 704C		ldr r7, [pc, #+76] ; 0x1A4
005BC612  53F0     		strh r0, [r6, +r7]

005BC614  E04E     		b #156

005BC618  00000010		; 0x00000010
005BC61C  00000042		; 0x00000042
005BC620  000000BB		; 0x000000BB
005BC624  00000104		; 0x00000104
005BC628  00000124		; 0x00000124
005BC62C  00000128		; 0x00000128
005BC630  0000012C		; 0x0000012C
005BC634  00000134		; 0x00000134
005BC638  0000013C		; 0x0000013C
005BC63C  00000150		; 0x00000150
005BC640  00000158		; 0x00000158
005BC644  00000198		; 0x00000198
005BC648  0000019A		; 0x0000019A
005BC64C  0000019C		; 0x0000019C
005BC650  0000019E		; 0x0000019E
005BC654  000001A0		; 0x000001A0
005BC658  000001A2		; 0x000001A2
005BC65C  000001A4		; 0x000001A4
005BC660  0048F96D		; 0x0048F96D
005BC664  00490519		; 0x00490519
005BC668  00490561		; 0x00490561
005BC66C  004908DD		; 0x004908DD
005BC670  004909F1		; 0x004909F1
005BC674  004A4509		; 0x004A4509
005BC678  004A4585		; 0x004A4585
005BC67C  005BA0D4		; 0x005BA0D4
005BC680  005BA188		; 0x005BA188
005BC684  005BA18C		; 0x005BA18C
005BC688  005BA190		; 0x005BA190
005BC68C  005BA1A8		; 0x005BA1A8
005BC690  005BA1C0		; 0x005BA1C0
005BC694  005BA1C4		; 0x005BA1C4
005BC698  005BA1D8		; 0x005BA1D8
005BC69C  005BA1F0		; 0x005BA1F0
005BC6A0  005BA1F2		; 0x005BA1F2
005BC6A4  005BA1F4		; 0x005BA1F4
005BC6A8  005BA1F8		; 0x005BA1F8
005BC6AC  005BA204		; 0x005BA204
005BC6B0  005BA208		; 0x005BA208

005BC6B4  F85F 705C		ldr r7, [pc, #-92] ; 0x1A4
005BC6B8  5BF5     		ldrh r5, [r6, +r7]
005BC6BA  F85F 7924		ldr r7, [pc, #-2340] ; 0xBA
005BC6BE  EB07 0705		add r7, r7, r5, lsl #0
005BC6C2  19F0     		add r0, r6, r7

005BC6C4  F85F 7918		ldr r7, [pc, #-2328] ; 0x15C
005BC6C8  51F0     		str r0, [r6, +r7]

005BC6CA  F85F 791C		ldr r7, [pc, #-2332] ; 0x15C
005BC6CE  59F0     		ldr r0, [r6, +r7]

005BC6D0  F85F 709C		ldr r7, [pc, #-156] ; 0x13C
005BC6D4  59F2     		ldr r2, [r6, +r7]
005BC6D6  F8DF 7818		ldr r7, [pc, #+2072] ; 0x138
005BC6DA  59F1     		ldr r1, [r6, +r7]
005BC6DC  4600     		mov r0, r0
005BC6DE  F8DF 4830		ldr r4, [pc, #+2096] ; 0x4907E5
005BC6E2  F044 0401		orr r4, r4, #1
005BC6E6  47A0     		blx r4

005BC6E8  F85F 7964		ldr r7, [pc, #-2404] ; 0x18
005BC6EC  51F0     		str r0, [r6, +r7]

005BC6EE  F85F 7978		ldr r7, [pc, #-2424] ; 0x6
005BC6F2  5BF0     		ldrh r0, [r6, +r7]

005BC6F4  F85F 70C0		ldr r7, [pc, #-192] ; 0x13C
005BC6F8  59F7     		ldr r7, [r6, +r7]
005BC6FA  19C0     		add r0, r0, r7

005BC6FC  F85F 7988		ldr r7, [pc, #-2440] ; 0x6
005BC700  53F0     		strh r0, [r6, +r7]

005BC702  F85F 7980		ldr r7, [pc, #-2432] ; 0xD
005BC706  5DF0     		ldrb r0, [r6, +r7]

005BC708  1C40     		add r0, r0, #1

005BC70A  F85F 798C		ldr r7, [pc, #-2444] ; 0xC
005BC70E  55F0     		strb r0, [r6, +r7]

005BC710  20D2     		mov r0, #210 ; 210
005BC712  F85F 7990		ldr r7, [pc, #-2448] ; 0xD
005BC716  55F0     		strb r0, [r6, +r7]

005BC718  F000 BEE8		b #3536 ; 0x005BD4EC


005BC71C  F85F 7988		ldr r7, [pc, #-2440] ; 0xBA
005BC720  5DF0     		ldrb r0, [r6, +r7]

005BC722  2706     		mov r7, #6 ; 6
005BC724  4038     		and r0, r0, r7

005BC726  2800     		cmp r0, #0
005BC728  BF08 2000		eqmov r0, #0
005BC72C  BF18 2001		nemov r0, #1

005BC730  2800     		cmp r0, #0
005BC732  D004     		beq #8 ; 0x005BC73E


005BC736  2001     		mov r0, #1 ; 1
005BC738  F8DF 7794		ldr r7, [pc, #+1940] ; 0x30
005BC73C  55F0     		strb r0, [r6, +r7]

005BC73E  2001     		mov r0, #1 ; 1

005BC740  4600     		mov r0, r0
005BC742  F85F 40E0		ldr r4, [pc, #-224] ; 0x490519
005BC746  F044 0401		orr r4, r4, #1
005BC74A  47A0     		blx r4

005BC74C  F85F 712C		ldr r7, [pc, #-300] ; 0x104
005BC750  51F0     		str r0, [r6, +r7]

005BC752  F85F 79D0		ldr r7, [pc, #-2512] ; 0xD
005BC756  5DF0     		ldrb r0, [r6, +r7]

005BC758  1C40     		add r0, r0, #1

005BC75A  F85F 79DC		ldr r7, [pc, #-2524] ; 0xC
005BC75E  55F0     		strb r0, [r6, +r7]

005BC760  20DC     		mov r0, #220 ; 220
005BC762  F85F 79E0		ldr r7, [pc, #-2528] ; 0xD
005BC766  55F0     		strb r0, [r6, +r7]

005BC768  F000 BEC0		b #3456 ; 0x005BD4EC


005BC76C  F85F 79D8		ldr r7, [pc, #-2520] ; 0xBA
005BC770  5DF0     		ldrb r0, [r6, +r7]

005BC772  2706     		mov r7, #6 ; 6
005BC774  4038     		and r0, r0, r7

005BC776  2800     		cmp r0, #0
005BC778  BF18 2000		nemov r0, #0
005BC77C  BF08 2001		eqmov r0, #1

005BC780  2800     		cmp r0, #0
005BC782  D032     		beq #100 ; 0x005BC7EA


005BC786  2001     		mov r0, #1 ; 1
005BC788  F8DF 7768		ldr r7, [pc, #+1896] ; 0x152
005BC78C  55F0     		strb r0, [r6, +r7]

005BC78E  2000     		mov r0, #0 ; 0
005BC790  F85F 7A10		ldr r7, [pc, #-2576] ; 0xD
005BC794  55F0     		strb r0, [r6, +r7]

005BC796  F85F 7A1C		ldr r7, [pc, #-2588] ; 0x8
005BC79A  59F0     		ldr r0, [r6, +r7]

005BC79C  2700     		mov r7, #0 ; 0
005BC79E  42B8     		cmp r0, r7
005BC7A0  BF08 2000		eqmov r0, #0
005BC7A4  BF18 2001		nemov r0, #1

005BC7A8  2800     		cmp r0, #0
005BC7AA  D01C     		beq #56 ; 0x005BC7E6


005BC7AE  F85F 09B0		ldr r0, [pc, #-2480] ; 0x5BA164

005BC7B2  F85F 7A04		ldr r7, [pc, #-2564] ; 0x15C
005BC7B6  51F0     		str r0, [r6, +r7]

005BC7B8  F8DF 0758		ldr r0, [pc, #+1880] ; 0x5BA20C

005BC7BC  F85F 7A00		ldr r7, [pc, #-2560] ; 0x184
005BC7C0  51F0     		str r0, [r6, +r7]

005BC7C2  2001     		mov r0, #1 ; 1

005BC7C4  F85F 7A08		ldr r7, [pc, #-2568] ; 0x184
005BC7C8  59F3     		ldr r3, [r6, +r7]
005BC7CA  F85F 7A1C		ldr r7, [pc, #-2588] ; 0x15C
005BC7CE  59F2     		ldr r2, [r6, +r7]
005BC7D0  F04F 5180		mov r1, #268435456 ; 268435456
005BC7D4  4600     		mov r0, r0
005BC7D6  F85F 49F8		ldr r4, [pc, #-2552] ; 0x48FE35
005BC7DA  F044 0401		orr r4, r4, #1
005BC7DE  47A0     		blx r4

005BC7E0  F85F 7A5C		ldr r7, [pc, #-2652] ; 0x18
005BC7E4  51F0     		str r0, [r6, +r7]

005BC7E6  F000 BE81		b #3330 ; 0x005BD4EC


005BC7EA  F85F 7A68		ldr r7, [pc, #-2664] ; 0xD
005BC7EE  5DF0     		ldrb r0, [r6, +r7]

005BC7F0  1C40     		add r0, r0, #1

005BC7F2  F85F 7A70		ldr r7, [pc, #-2672] ; 0xD
005BC7F6  55F0     		strb r0, [r6, +r7]

005BC7F8  F000 BE78		b #3312 ; 0x005BD4EC


005BC7FC  2001     		mov r0, #1 ; 1

005BC7FE  4600     		mov r0, r0
005BC800  F85F 41A0		ldr r4, [pc, #-416] ; 0x490519
005BC804  F044 0401		orr r4, r4, #1
005BC808  47A0     		blx r4

005BC80A  F85F 71E8		ldr r7, [pc, #-488] ; 0x104
005BC80E  59F7     		ldr r7, [r6, +r7]
005BC810  1BC0     		sub r0, r0, r7

005BC812  F85F 7198		ldr r7, [pc, #-408] ; 0x5BA0D4
005BC816  683F     		ldr r7, [r7]
005BC818  42B8     		cmp r0, r7
005BC81A  BF98 2000		lsmov r0, #0
005BC81E  BF88 2001		himov r0, #1

005BC822  2800     		cmp r0, #0
005BC824  D008     		beq #16 ; 0x005BC838


005BC828  F8DF 76EC		ldr r7, [pc, #+1772] ; 0x5BA224
005BC82C  6838     		ldr r0, [r7]
005BC82E  F85F 7218		ldr r7, [pc, #-536] ; 0x10
005BC832  51F0     		str r0, [r6, +r7]

005BC834  F000 BE5A		b #3252 ; 0x005BD4EC


005BC838  F8DF 7694		ldr r7, [pc, #+1684] ; 0x30
005BC83C  5DF0     		ldrb r0, [r6, +r7]

005BC83E  2800     		cmp r0, #0
005BC840  D002     		beq #4 ; 0x005BC848


005BC844  F000 BE52		b #3236 ; 0x005BD4EC


005BC848  2001     		mov r0, #1 ; 1

005BC84A  4600     		mov r0, r0
005BC84C  F85F 41EC		ldr r4, [pc, #-492] ; 0x490519
005BC850  F044 0401		orr r4, r4, #1
005BC854  47A0     		blx r4

005BC856  F85F 7234		ldr r7, [pc, #-564] ; 0x104
005BC85A  59F7     		ldr r7, [r6, +r7]
005BC85C  1BC0     		sub r0, r0, r7

005BC85E  F8DF 769C		ldr r7, [pc, #+1692] ; 0x16C
005BC862  51F0     		str r0, [r6, +r7]

005BC864  F8DF 7694		ldr r7, [pc, #+1684] ; 0x16C
005BC868  59F0     		ldr r0, [r6, +r7]

005BC86A  F85F 41F8		ldr r4, [pc, #-504] ; 0x4A4509
005BC86E  F044 0401		orr r4, r4, #1
005BC872  47A0     		blx r4

005BC874  B082     		sub sp, sp, #8
005BC876  F8CD 1000		str r1, [sp]
005BC87A  F85F 71F8		ldr r7, [pc, #-504] ; 0x5BA18C
005BC87E  6839     		ldr r1, [r7]
005BC880  F85F 420C		ldr r4, [pc, #-524] ; 0x4A4585
005BC884  F044 0401		orr r4, r4, #1
005BC888  47A0     		blx r4
005BC88A  F8DD 1000		ldr r1, [sp]
005BC88E  B002     		add sp, sp, #8

005BC890  F85F 7254		ldr r7, [pc, #-596] ; 0x158
005BC894  51F0     		str r0, [r6, +r7]

005BC896  F85F 7B1C		ldr r7, [pc, #-2844] ; 0x8
005BC89A  59F0     		ldr r0, [r6, +r7]

005BC89C  2700     		mov r7, #0 ; 0
005BC89E  42B8     		cmp r0, r7
005BC8A0  BF08 2000		eqmov r0, #0
005BC8A4  BF18 2001		nemov r0, #1

005BC8A8  2800     		cmp r0, #0
005BC8AA  D01C     		beq #56 ; 0x005BC8E6


005BC8AE  F85F 0AB0		ldr r0, [pc, #-2736] ; 0x5BA164

005BC8B2  F85F 7B04		ldr r7, [pc, #-2820] ; 0x15C
005BC8B6  51F0     		str r0, [r6, +r7]

005BC8B8  F8DF 0658		ldr r0, [pc, #+1624] ; 0x5BA20C

005BC8BC  F85F 7B00		ldr r7, [pc, #-2816] ; 0x184
005BC8C0  51F0     		str r0, [r6, +r7]

005BC8C2  2001     		mov r0, #1 ; 1

005BC8C4  F85F 7B08		ldr r7, [pc, #-2824] ; 0x184
005BC8C8  59F3     		ldr r3, [r6, +r7]
005BC8CA  F85F 7B1C		ldr r7, [pc, #-2844] ; 0x15C
005BC8CE  59F2     		ldr r2, [r6, +r7]
005BC8D0  F04F 5180		mov r1, #268435456 ; 268435456
005BC8D4  4600     		mov r0, r0
005BC8D6  F85F 4AF8		ldr r4, [pc, #-2808] ; 0x48FE35
005BC8DA  F044 0401		orr r4, r4, #1
005BC8DE  47A0     		blx r4

005BC8E0  F85F 7B5C		ldr r7, [pc, #-2908] ; 0x18
005BC8E4  51F0     		str r0, [r6, +r7]

005BC8E6  2001     		mov r0, #1 ; 1
005BC8E8  F8DF 7608		ldr r7, [pc, #+1544] ; 0x152
005BC8EC  55F0     		strb r0, [r6, +r7]

005BC8EE  2000     		mov r0, #0 ; 0
005BC8F0  F85F 7B70		ldr r7, [pc, #-2928] ; 0xD
005BC8F4  55F0     		strb r0, [r6, +r7]

005BC8F6  F000 BDF9		b #3058 ; 0x005BD4EC


005BC8FA  F85F 7B80		ldr r7, [pc, #-2944] ; 0x8
005BC8FE  59F0     		ldr r0, [r6, +r7]

005BC900  2700     		mov r7, #0 ; 0
005BC902  42B8     		cmp r0, r7
005BC904  BF08 2000		eqmov r0, #0
005BC908  BF18 2001		nemov r0, #1

005BC90C  2800     		cmp r0, #0
005BC90E  D01C     		beq #56 ; 0x005BC94A


005BC912  F85F 0B14		ldr r0, [pc, #-2836] ; 0x5BA164

005BC916  F85F 7B68		ldr r7, [pc, #-2920] ; 0x15C
005BC91A  51F0     		str r0, [r6, +r7]

005BC91C  F8DF 05FC		ldr r0, [pc, #+1532] ; 0x5BA228

005BC920  F85F 7B64		ldr r7, [pc, #-2916] ; 0x184
005BC924  51F0     		str r0, [r6, +r7]

005BC926  2001     		mov r0, #1 ; 1

005BC928  F85F 7B6C		ldr r7, [pc, #-2924] ; 0x184
005BC92C  59F3     		ldr r3, [r6, +r7]
005BC92E  F85F 7B80		ldr r7, [pc, #-2944] ; 0x15C
005BC932  59F2     		ldr r2, [r6, +r7]
005BC934  F04F 5180		mov r1, #268435456 ; 268435456
005BC938  4600     		mov r0, r0
005BC93A  F85F 4B5C		ldr r4, [pc, #-2908] ; 0x48FE35
005BC93E  F044 0401		orr r4, r4, #1
005BC942  47A0     		blx r4

005BC944  F85F 7BC0		ldr r7, [pc, #-3008] ; 0x18
005BC948  51F0     		str r0, [r6, +r7]

005BC94A  2082     		mov r0, #130 ; 130
005BC94C  F85F 7BB8		ldr r7, [pc, #-3000] ; 0xBA
005BC950  55F0     		strb r0, [r6, +r7]

005BC952  2001     		mov r0, #1 ; 1
005BC954  F85F 7BE0		ldr r7, [pc, #-3040] ; 0x6
005BC958  53F0     		strh r0, [r6, +r7]

005BC95A  F8DF 7580		ldr r7, [pc, #+1408] ; 0x8E
005BC95E  5BF0     		ldrh r0, [r6, +r7]

005BC960  1C40     		add r0, r0, #1

005BC962  F8DF 7578		ldr r7, [pc, #+1400] ; 0x8E
005BC966  53F0     		strh r0, [r6, +r7]

005BC968  F85F 7BF4		ldr r7, [pc, #-3060] ; 0x6
005BC96C  5BF0     		ldrh r0, [r6, +r7]

005BC96E  F8DF 7590		ldr r7, [pc, #+1424] ; 0x1A6
005BC972  53F0     		strh r0, [r6, +r7]

005BC974  F8DF 7564		ldr r7, [pc, #+1380] ; 0x8E
005BC978  5BF0     		ldrh r0, [r6, +r7]

005BC97A  B082     		sub sp, sp, #8
005BC97C  F8CD 1000		str r1, [sp]
005BC980  F44F 7180		mov r1, #256 ; 256
005BC984  FBB0 F0F1		udiv r0, r0, r1
005BC988  F8DD 1000		ldr r1, [sp]
005BC98C  B002     		add sp, sp, #8

005BC98E  F8DF 7570		ldr r7, [pc, #+1392] ; 0x1A6
005BC992  5BF5     		ldrh r5, [r6, +r7]
005BC994  F85F 7C00		ldr r7, [pc, #-3072] ; 0xBA
005BC998  EB07 0705		add r7, r7, r5, lsl #0
005BC99C  55F0     		strb r0, [r6, +r7]

005BC99E  F85F 7C28		ldr r7, [pc, #-3112] ; 0x6
005BC9A2  5BF0     		ldrh r0, [r6, +r7]

005BC9A4  1C40     		add r0, r0, #1

005BC9A6  F85F 7C30		ldr r7, [pc, #-3120] ; 0x6
005BC9AA  53F0     		strh r0, [r6, +r7]

005BC9AC  F85F 7C38		ldr r7, [pc, #-3128] ; 0x6
005BC9B0  5BF0     		ldrh r0, [r6, +r7]

005BC9B2  F8DF 7550		ldr r7, [pc, #+1360] ; 0x1A8
005BC9B6  53F0     		strh r0, [r6, +r7]

005BC9B8  F8DF 7520		ldr r7, [pc, #+1312] ; 0x8E
005BC9BC  5BF0     		ldrh r0, [r6, +r7]

005BC9BE  F8DF 7544		ldr r7, [pc, #+1348] ; 0x1A8
005BC9C2  5BF5     		ldrh r5, [r6, +r7]
005BC9C4  F85F 7C30		ldr r7, [pc, #-3120] ; 0xBA
005BC9C8  EB07 0705		add r7, r7, r5, lsl #0
005BC9CC  55F0     		strb r0, [r6, +r7]

005BC9CE  F85F 7C58		ldr r7, [pc, #-3160] ; 0x6
005BC9D2  5BF0     		ldrh r0, [r6, +r7]

005BC9D4  1C40     		add r0, r0, #1

005BC9D6  F85F 7C60		ldr r7, [pc, #-3168] ; 0x6
005BC9DA  53F0     		strh r0, [r6, +r7]

005BC9DC  F85F 73AC		ldr r7, [pc, #-940] ; 0x134
005BC9E0  59F0     		ldr r0, [r6, +r7]
005BC9E2  F85F 7C58		ldr r7, [pc, #-3160] ; 0x1C
005BC9E6  51F0     		str r0, [r6, +r7]

005BC9E8  F85F 7C68		ldr r7, [pc, #-3176] ; 0xD
005BC9EC  5DF0     		ldrb r0, [r6, +r7]

005BC9EE  1C40     		add r0, r0, #1

005BC9F0  F85F 7C74		ldr r7, [pc, #-3188] ; 0xC
005BC9F4  55F0     		strb r0, [r6, +r7]

005BC9F6  20C8     		mov r0, #200 ; 200
005BC9F8  F85F 7C78		ldr r7, [pc, #-3192] ; 0xD
005BC9FC  55F0     		strb r0, [r6, +r7]

005BC9FE  F000 BD75		b #2794 ; 0x005BD4EC


005BCA02  F85F 7C88		ldr r7, [pc, #-3208] ; 0x8
005BCA06  59F0     		ldr r0, [r6, +r7]

005BCA08  2700     		mov r7, #0 ; 0
005BCA0A  42B8     		cmp r0, r7
005BCA0C  BF08 2000		eqmov r0, #0
005BCA10  BF18 2001		nemov r0, #1

005BCA14  2800     		cmp r0, #0
005BCA16  D02F     		beq #94 ; 0x005BCA78


005BCA1A  F85F 7CA0		ldr r7, [pc, #-3232] ; 0x8
005BCA1E  59F0     		ldr r0, [r6, +r7]

005BCA20  B082     		sub sp, sp, #8
005BCA22  F85F 73F0		ldr r7, [pc, #-1008] ; 0x134
005BCA26  59F7     		ldr r7, [r6, +r7]
005BCA28  F8CD 7000		str r7, [sp]
005BCA2C  2332     		mov r3, #50 ; 50
005BCA2E  F8DF 74F0		ldr r7, [pc, #+1264] ; 0x5BA244
005BCA32  463A     		mov r2, r7
005BCA34  2180     		mov r1, #128 ; 128
005BCA36  4600     		mov r0, r0
005BCA38  F85F 43DC		ldr r4, [pc, #-988] ; 0x48F96D
005BCA3C  F044 0401		orr r4, r4, #1
005BCA40  47A0     		blx r4
005BCA42  B002     		add sp, sp, #8

005BCA44  F85F 7CC0		ldr r7, [pc, #-3264] ; 0x18
005BCA48  51F0     		str r0, [r6, +r7]

005BCA4A  F8DF 04D8		ldr r0, [pc, #+1240] ; 0x5BA254

005BCA4E  F85F 7CA0		ldr r7, [pc, #-3232] ; 0x15C
005BCA52  51F0     		str r0, [r6, +r7]

005BCA54  2001     		mov r0, #1 ; 1

005BCA56  F85F 7CDC		ldr r7, [pc, #-3292] ; 0x8
005BCA5A  59F3     		ldr r3, [r6, +r7]
005BCA5C  F85F 7CB0		ldr r7, [pc, #-3248] ; 0x15C
005BCA60  59F2     		ldr r2, [r6, +r7]
005BCA62  F44F 5100		mov r1, #8192 ; 8192
005BCA66  4600     		mov r0, r0
005BCA68  F85F 4C8C		ldr r4, [pc, #-3212] ; 0x48FE35
005BCA6C  F044 0401		orr r4, r4, #1
005BCA70  47A0     		blx r4

005BCA72  F85F 7CEC		ldr r7, [pc, #-3308] ; 0x18
005BCA76  51F0     		str r0, [r6, +r7]

005BCA78  F85F 7D04		ldr r7, [pc, #-3332] ; 0x6
005BCA7C  5BF0     		ldrh r0, [r6, +r7]

005BCA7E  F8DF 7488		ldr r7, [pc, #+1160] ; 0x1AA
005BCA82  53F0     		strh r0, [r6, +r7]

005BCA84  F8DF 7464		ldr r7, [pc, #+1124] ; 0x130
005BCA88  5DF0     		ldrb r0, [r6, +r7]
005BCA8A  F8DF 747C		ldr r7, [pc, #+1148] ; 0x1AA
005BCA8E  5BF5     		ldrh r5, [r6, +r7]
005BCA90  F85F 7CFC		ldr r7, [pc, #-3324] ; 0xBA
005BCA94  EB07 0705		add r7, r7, r5, lsl #0
005BCA98  55F0     		strb r0, [r6, +r7]

005BCA9A  F85F 7D24		ldr r7, [pc, #-3364] ; 0x6
005BCA9E  5BF0     		ldrh r0, [r6, +r7]

005BCAA0  1C40     		add r0, r0, #1

005BCAA2  F85F 7D2C		ldr r7, [pc, #-3372] ; 0x6
005BCAA6  53F0     		strh r0, [r6, +r7]

005BCAA8  F85F 7D28		ldr r7, [pc, #-3368] ; 0xD
005BCAAC  5DF0     		ldrb r0, [r6, +r7]

005BCAAE  1C40     		add r0, r0, #1

005BCAB0  F85F 7D34		ldr r7, [pc, #-3380] ; 0xC
005BCAB4  55F0     		strb r0, [r6, +r7]

005BCAB6  20D2     		mov r0, #210 ; 210
005BCAB8  F85F 7D38		ldr r7, [pc, #-3384] ; 0xD
005BCABC  55F0     		strb r0, [r6, +r7]

005BCABE  F000 BD15		b #2602 ; 0x005BD4EC


005BCAC2  2001     		mov r0, #1 ; 1
005BCAC4  F8DF 7410		ldr r7, [pc, #+1040] ; 0x8C
005BCAC8  55F0     		strb r0, [r6, +r7]

005BCACA  2001     		mov r0, #1 ; 1

005BCACC  4600     		mov r0, r0
005BCACE  F85F 446C		ldr r4, [pc, #-1132] ; 0x490519
005BCAD2  F044 0401		orr r4, r4, #1
005BCAD6  47A0     		blx r4

005BCAD8  F85F 74B8		ldr r7, [pc, #-1208] ; 0x104
005BCADC  51F0     		str r0, [r6, +r7]

005BCADE  F85F 7D5C		ldr r7, [pc, #-3420] ; 0xD
005BCAE2  5DF0     		ldrb r0, [r6, +r7]

005BCAE4  1C40     		add r0, r0, #1

005BCAE6  F85F 7D68		ldr r7, [pc, #-3432] ; 0xC
005BCAEA  55F0     		strb r0, [r6, +r7]

005BCAEC  20DC     		mov r0, #220 ; 220
005BCAEE  F85F 7D6C		ldr r7, [pc, #-3436] ; 0xD
005BCAF2  55F0     		strb r0, [r6, +r7]

005BCAF4  F000 BCFA		b #2548 ; 0x005BD4EC


005BCAF8  2001     		mov r0, #1 ; 1

005BCAFA  4600     		mov r0, r0
005BCAFC  F85F 449C		ldr r4, [pc, #-1180] ; 0x490519
005BCB00  F044 0401		orr r4, r4, #1
005BCB04  47A0     		blx r4

005BCB06  F85F 74E4		ldr r7, [pc, #-1252] ; 0x104
005BCB0A  59F7     		ldr r7, [r6, +r7]
005BCB0C  1BC0     		sub r0, r0, r7

005BCB0E  F85F 7494		ldr r7, [pc, #-1172] ; 0x5BA0D4
005BCB12  683F     		ldr r7, [r7]
005BCB14  42B8     		cmp r0, r7
005BCB16  BF98 2000		lsmov r0, #0
005BCB1A  BF88 2001		himov r0, #1

005BCB1E  2800     		cmp r0, #0
005BCB20  D008     		beq #16 ; 0x005BCB34


005BCB24  F8DF 7400		ldr r7, [pc, #+1024] ; 0x5BA258
005BCB28  6838     		ldr r0, [r7]
005BCB2A  F85F 7514		ldr r7, [pc, #-1300] ; 0x10
005BCB2E  51F0     		str r0, [r6, +r7]

005BCB30  F000 BCDC		b #2488 ; 0x005BD4EC


005BCB34  F8DF 73A0		ldr r7, [pc, #+928] ; 0x8C
005BCB38  5DF0     		ldrb r0, [r6, +r7]

005BCB3A  2800     		cmp r0, #0
005BCB3C  D002     		beq #4 ; 0x005BCB44


005BCB40  F000 BCD4		b #2472 ; 0x005BD4EC


005BCB44  F85F 7DCC		ldr r7, [pc, #-3532] ; 0x8
005BCB48  59F0     		ldr r0, [r6, +r7]

005BCB4A  2700     		mov r7, #0 ; 0
005BCB4C  42B8     		cmp r0, r7
005BCB4E  BF08 2000		eqmov r0, #0
005BCB52  BF18 2001		nemov r0, #1

005BCB56  2800     		cmp r0, #0
005BCB58  D01C     		beq #56 ; 0x005BCB94


005BCB5C  F85F 0D60		ldr r0, [pc, #-3424] ; 0x5BA164

005BCB60  F85F 7DB4		ldr r7, [pc, #-3508] ; 0x15C
005BCB64  51F0     		str r0, [r6, +r7]

005BCB66  F8DF 03C4		ldr r0, [pc, #+964] ; 0x5BA25C

005BCB6A  F85F 7DAC		ldr r7, [pc, #-3500] ; 0x184
005BCB6E  51F0     		str r0, [r6, +r7]

005BCB70  2001     		mov r0, #1 ; 1

005BCB72  F85F 7DB4		ldr r7, [pc, #-3508] ; 0x184
005BCB76  59F3     		ldr r3, [r6, +r7]
005BCB78  F85F 7DCC		ldr r7, [pc, #-3532] ; 0x15C
005BCB7C  59F2     		ldr r2, [r6, +r7]
005BCB7E  F04F 5180		mov r1, #268435456 ; 268435456
005BCB82  4600     		mov r0, r0
005BCB84  F85F 4DA8		ldr r4, [pc, #-3496] ; 0x48FE35
005BCB88  F044 0401		orr r4, r4, #1
005BCB8C  47A0     		blx r4

005BCB8E  F85F 7E08		ldr r7, [pc, #-3592] ; 0x18
005BCB92  51F0     		str r0, [r6, +r7]

005BCB94  2001     		mov r0, #1 ; 1
005BCB96  F8DF 7360		ldr r7, [pc, #+864] ; 0x153
005BCB9A  55F0     		strb r0, [r6, +r7]

005BCB9C  2000     		mov r0, #0 ; 0
005BCB9E  F85F 7E1C		ldr r7, [pc, #-3612] ; 0xD
005BCBA2  55F0     		strb r0, [r6, +r7]

005BCBA4  F000 BCA2		b #2372 ; 0x005BD4EC


005BCBA8  F85F 7E30		ldr r7, [pc, #-3632] ; 0x8
005BCBAC  59F0     		ldr r0, [r6, +r7]

005BCBAE  2700     		mov r7, #0 ; 0
005BCBB0  42B8     		cmp r0, r7
005BCBB2  BF08 2000		eqmov r0, #0
005BCBB6  BF18 2001		nemov r0, #1

005BCBBA  2800     		cmp r0, #0
005BCBBC  D01C     		beq #56 ; 0x005BCBF8


005BCBC0  F85F 0DC4		ldr r0, [pc, #-3524] ; 0x5BA164

005BCBC4  F85F 7E18		ldr r7, [pc, #-3608] ; 0x15C
005BCBC8  51F0     		str r0, [r6, +r7]

005BCBCA  F8DF 0364		ldr r0, [pc, #+868] ; 0x5BA274

005BCBCE  F85F 7E10		ldr r7, [pc, #-3600] ; 0x184
005BCBD2  51F0     		str r0, [r6, +r7]

005BCBD4  2001     		mov r0, #1 ; 1

005BCBD6  F85F 7E18		ldr r7, [pc, #-3608] ; 0x184
005BCBDA  59F3     		ldr r3, [r6, +r7]
005BCBDC  F85F 7E30		ldr r7, [pc, #-3632] ; 0x15C
005BCBE0  59F2     		ldr r2, [r6, +r7]
005BCBE2  F04F 5180		mov r1, #268435456 ; 268435456
005BCBE6  4600     		mov r0, r0
005BCBE8  F85F 4E0C		ldr r4, [pc, #-3596] ; 0x48FE35
005BCBEC  F044 0401		orr r4, r4, #1
005BCBF0  47A0     		blx r4

005BCBF2  F85F 7E6C		ldr r7, [pc, #-3692] ; 0x18
005BCBF6  51F0     		str r0, [r6, +r7]

005BCBF8  2040     		mov r0, #64 ; 64
005BCBFA  F85F 7E64		ldr r7, [pc, #-3684] ; 0xBA
005BCBFE  55F0     		strb r0, [r6, +r7]

005BCC00  2002     		mov r0, #2 ; 2
005BCC02  F85F 75E4		ldr r7, [pc, #-1508] ; 0xBB
005BCC06  55F0     		strb r0, [r6, +r7]

005BCC08  F85F 7E78		ldr r7, [pc, #-3704] ; 0x32
005BCC0C  5BF0     		ldrh r0, [r6, +r7]

005BCC0E  B082     		sub sp, sp, #8
005BCC10  F8CD 1000		str r1, [sp]
005BCC14  F44F 7180		mov r1, #256 ; 256
005BCC18  FBB0 F0F1		udiv r0, r0, r1
005BCC1C  F8DD 1000		ldr r1, [sp]
005BCC20  B002     		add sp, sp, #8

005BCC22  F8DF 72C0		ldr r7, [pc, #+704] ; 0xBC
005BCC26  55F0     		strb r0, [r6, +r7]

005BCC28  F85F 7E98		ldr r7, [pc, #-3736] ; 0x32
005BCC2C  5BF0     		ldrh r0, [r6, +r7]

005BCC2E  F8DF 72B8		ldr r7, [pc, #+696] ; 0xBD
005BCC32  55F0     		strb r0, [r6, +r7]

005BCC34  4630     		mov r0, r6
005BCC36  F85F 7EA4		ldr r7, [pc, #-3748] ; 0x32
005BCC3A  19C0     		add r0, r0, r7

005BCC3C  F85F 7E90		ldr r7, [pc, #-3728] ; 0x15C
005BCC40  51F0     		str r0, [r6, +r7]

005BCC42  4630     		mov r0, r6
005BCC44  F8DF 728C		ldr r7, [pc, #+652] ; 0x34
005BCC48  19C0     		add r0, r0, r7

005BCC4A  F85F 7E8C		ldr r7, [pc, #-3724] ; 0x184
005BCC4E  51F0     		str r0, [r6, +r7]

005BCC50  2010     		mov r0, #16 ; 16

005BCC52  1E80     		sub r0, r0, #2

005BCC54  F8DF 72A4		ldr r7, [pc, #+676] ; 0x16C
005BCC58  51F0     		str r0, [r6, +r7]

005BCC5A  F85F 7EAC		ldr r7, [pc, #-3756] ; 0x15C
005BCC5E  59F0     		ldr r0, [r6, +r7]

005BCC60  F8DF 7298		ldr r7, [pc, #+664] ; 0x16C
005BCC64  59F2     		ldr r2, [r6, +r7]
005BCC66  F85F 7EA8		ldr r7, [pc, #-3752] ; 0x184
005BCC6A  59F1     		ldr r1, [r6, +r7]
005BCC6C  4600     		mov r0, r0
005BCC6E  F8DF 42A0		ldr r4, [pc, #+672] ; 0x4907E5
005BCC72  F044 0401		orr r4, r4, #1
005BCC76  47A0     		blx r4

005BCC78  F85F 7EF4		ldr r7, [pc, #-3828] ; 0x18
005BCC7C  51F0     		str r0, [r6, +r7]

005BCC7E  F8DF 724C		ldr r7, [pc, #+588] ; 0x28
005BCC82  5DF0     		ldrb r0, [r6, +r7]

005BCC84  1E40     		sub r0, r0, #1

005BCC86  F8DF 7244		ldr r7, [pc, #+580] ; 0x28
005BCC8A  55F0     		strb r0, [r6, +r7]

005BCC8C  2004     		mov r0, #4 ; 4
005BCC8E  F85F 7F18		ldr r7, [pc, #-3864] ; 0x6
005BCC92  53F0     		strh r0, [r6, +r7]

005BCC94  F85F 7F14		ldr r7, [pc, #-3860] ; 0xD
005BCC98  5DF0     		ldrb r0, [r6, +r7]

005BCC9A  1C40     		add r0, r0, #1

005BCC9C  F85F 7F20		ldr r7, [pc, #-3872] ; 0xC
005BCCA0  55F0     		strb r0, [r6, +r7]

005BCCA2  20DC     		mov r0, #220 ; 220
005BCCA4  F85F 7F24		ldr r7, [pc, #-3876] ; 0xD
005BCCA8  55F0     		strb r0, [r6, +r7]

005BCCAA  F000 BC1F		b #2110 ; 0x005BD4EC


005BCCAE  F85F 7F34		ldr r7, [pc, #-3892] ; 0x8
005BCCB2  59F0     		ldr r0, [r6, +r7]

005BCCB4  2700     		mov r7, #0 ; 0
005BCCB6  42B8     		cmp r0, r7
005BCCB8  BF08 2000		eqmov r0, #0
005BCCBC  BF18 2001		nemov r0, #1

005BCCC0  2800     		cmp r0, #0
005BCCC2  D01C     		beq #56 ; 0x005BCCFE


005BCCC6  F85F 0EC8		ldr r0, [pc, #-3784] ; 0x5BA164

005BCCCA  F85F 7F1C		ldr r7, [pc, #-3868] ; 0x15C
005BCCCE  51F0     		str r0, [r6, +r7]

005BCCD0  F8DF 0260		ldr r0, [pc, #+608] ; 0x5BA29C

005BCCD4  F85F 7F18		ldr r7, [pc, #-3864] ; 0x184
005BCCD8  51F0     		str r0, [r6, +r7]

005BCCDA  2001     		mov r0, #1 ; 1

005BCCDC  F85F 7F20		ldr r7, [pc, #-3872] ; 0x184
005BCCE0  59F3     		ldr r3, [r6, +r7]
005BCCE2  F85F 7F34		ldr r7, [pc, #-3892] ; 0x15C
005BCCE6  59F2     		ldr r2, [r6, +r7]
005BCCE8  F04F 5180		mov r1, #268435456 ; 268435456
005BCCEC  4600     		mov r0, r0
005BCCEE  F85F 4F10		ldr r4, [pc, #-3856] ; 0x48FE35
005BCCF2  F044 0401		orr r4, r4, #1
005BCCF6  47A0     		blx r4

005BCCF8  F85F 7F74		ldr r7, [pc, #-3956] ; 0x18
005BCCFC  51F0     		str r0, [r6, +r7]

005BCCFE  2000     		mov r0, #0 ; 0
005BCD00  F85F 7F80		ldr r7, [pc, #-3968] ; 0xD
005BCD04  55F0     		strb r0, [r6, +r7]

005BCD06  E3F1     		b #2018 ; 0x005BD4EC


005BCD0A  F85F 7F80		ldr r7, [pc, #-3968] ; 0x1C
005BCD0E  F856 C007		ldr r12, [r6, +r7]
005BCD12  F89C 0000		ldrb r0, [r12]

005BCD16  2800     		cmp r0, #0
005BCD18  BF18 2000		nemov r0, #0
005BCD1C  BF08 2001		eqmov r0, #1

005BCD20  B082     		sub sp, sp, #8
005BCD22  F8CD 0000		str r0, [sp]
005BCD26  F85F 7F9C		ldr r7, [pc, #-3996] ; 0x1C
005BCD2A  59F0     		ldr r0, [r6, +r7]

005BCD2C  2700     		mov r7, #0 ; 0
005BCD2E  42B8     		cmp r0, r7
005BCD30  BF18 2000		nemov r0, #0
005BCD34  BF08 2001		eqmov r0, #1

005BCD38  4607     		mov r7, r0
005BCD3A  F8DD 0000		ldr r0, [sp]
005BCD3E  B002     		add sp, sp, #8
005BCD40  4338     		orr r0, r0, r7

005BCD42  2800     		cmp r0, #0
005BCD44  D008     		beq #16 ; 0x005BCD58


005BCD48  F8DF 71EC		ldr r7, [pc, #+492] ; 0x5BA2C4
005BCD4C  6838     		ldr r0, [r7]
005BCD4E  F85F 7738		ldr r7, [pc, #-1848] ; 0x10
005BCD52  51F0     		str r0, [r6, +r7]

005BCD54  E3CA     		b #1940 ; 0x005BD4EC


005BCD58  F85F 7FD0		ldr r7, [pc, #-4048] ; 0x1C
005BCD5C  59F0     		ldr r0, [r6, +r7]

005BCD5E  F8DF 7168		ldr r7, [pc, #+360] ; 0x24
005BCD62  51F0     		str r0, [r6, +r7]

005BCD64  F85F 7FF0		ldr r7, [pc, #-4080] ; 0x6
005BCD68  5BF0     		ldrh r0, [r6, +r7]
005BCD6A  F85F 7FE4		ldr r7, [pc, #-4068] ; 0x18
005BCD6E  51F0     		str r0, [r6, +r7]

005BCD70  F85F 7FFC		ldr r7, [pc, #-4092] ; 0x6
005BCD74  5BF0     		ldrh r0, [r6, +r7]

005BCD76  1C80     		add r0, r0, #2

005BCD78  F8DF 7140		ldr r7, [pc, #+320] ; 0x6
005BCD7C  53F0     		strh r0, [r6, +r7]

005BCD7E  F85F 7FF4		ldr r7, [pc, #-4084] ; 0x1C
005BCD82  F856 C007		ldr r12, [r6, +r7]
005BCD86  F89C 0000		ldrb r0, [r12]

005BCD8A  2800     		cmp r0, #0
005BCD8C  BF08 2000		eqmov r0, #0
005BCD90  BF18 2001		nemov r0, #1

005BCD94  2800     		cmp r0, #0
005BCD96  D06D     		beq #218 ; 0x005BCE74


005BCD9A  F8DF 7120		ldr r7, [pc, #+288] ; 0x6
005BCD9E  5BF0     		ldrh r0, [r6, +r7]

005BCDA0  B082     		sub sp, sp, #8
005BCDA2  F8CD 0000		str r0, [sp]
005BCDA6  2040     		mov r0, #64 ; 64

005BCDA8  1E40     		sub r0, r0, #1

005BCDAA  4607     		mov r7, r0
005BCDAC  F8DD 0000		ldr r0, [sp]
005BCDB0  B002     		add sp, sp, #8
005BCDB2  42B8     		cmp r0, r7
005BCDB4  BF38 2000		lomov r0, #0
005BCDB8  BF28 2001		hsmov r0, #1

005BCDBC  2800     		cmp r0, #0
005BCDBE  D008     		beq #16 ; 0x005BCDD2


005BCDC2  F8DF 7178		ldr r7, [pc, #+376] ; 0x5BA2C8
005BCDC6  6838     		ldr r0, [r7]
005BCDC8  F85F 77B4		ldr r7, [pc, #-1972] ; 0x10
005BCDCC  51F0     		str r0, [r6, +r7]

005BCDCE  E38D     		b #1818 ; 0x005BD4EC


005BCDD2  F8DF 70F0		ldr r7, [pc, #+240] ; 0x1C
005BCDD6  F856 C007		ldr r12, [r6, +r7]
005BCDDA  F89C 0000		ldrb r0, [r12]

005BCDDE  287E     		cmp r0, #126
005BCDE0  BFC8 2000		gtmov r0, #0
005BCDE4  BFD8 2001		lemov r0, #1

005BCDE8  B082     		sub sp, sp, #8
005BCDEA  F8CD 0000		str r0, [sp]
005BCDEE  F8DF 70D4		ldr r7, [pc, #+212] ; 0x1C
005BCDF2  F856 C007		ldr r12, [r6, +r7]
005BCDF6  F89C 0000		ldrb r0, [r12]

005BCDFA  2820     		cmp r0, #32
005BCDFC  BFB8 2000		ltmov r0, #0
005BCE00  BFA8 2001		gemov r0, #1

005BCE04  4607     		mov r7, r0
005BCE06  F8DD 0000		ldr r0, [sp]
005BCE0A  B002     		add sp, sp, #8
005BCE0C  4038     		and r0, r0, r7

005BCE0E  2800     		cmp r0, #0
005BCE10  BF08 2001		eqmov r0, #1
005BCE14  BF18 2000		nemov r0, #0

005BCE18  2800     		cmp r0, #0
005BCE1A  D008     		beq #16 ; 0x005BCE2E


005BCE1E  F8DF 7120		ldr r7, [pc, #+288] ; 0x5BA2CC
005BCE22  6838     		ldr r0, [r7]
005BCE24  F85F 7810		ldr r7, [pc, #-2064] ; 0x10
005BCE28  51F0     		str r0, [r6, +r7]

005BCE2A  E35F     		b #1726 ; 0x005BD4EC


005BCE2E  F8DF 708C		ldr r7, [pc, #+140] ; 0x6
005BCE32  5BF0     		ldrh r0, [r6, +r7]

005BCE34  F8DF 70D4		ldr r7, [pc, #+212] ; 0x1AC
005BCE38  53F0     		strh r0, [r6, +r7]

005BCE3A  F8DF 7088		ldr r7, [pc, #+136] ; 0x1C
005BCE3E  F856 C007		ldr r12, [r6, +r7]
005BCE42  F89C 0000		ldrb r0, [r12]
005BCE46  F8DF 70C4		ldr r7, [pc, #+196] ; 0x1AC
005BCE4A  5BF5     		ldrh r5, [r6, +r7]
005BCE4C  F8DF 7090		ldr r7, [pc, #+144] ; 0xBA
005BCE50  EB07 0705		add r7, r7, r5, lsl #0
005BCE54  55F0     		strb r0, [r6, +r7]

005BCE56  F8DF 706C		ldr r7, [pc, #+108] ; 0x1C
005BCE5A  59F0     		ldr r0, [r6, +r7]

005BCE5C  1C40     		add r0, r0, #1

005BCE5E  F8DF 7064		ldr r7, [pc, #+100] ; 0x1C
005BCE62  51F0     		str r0, [r6, +r7]

005BCE64  F8DF 7054		ldr r7, [pc, #+84] ; 0x6
005BCE68  5BF0     		ldrh r0, [r6, +r7]

005BCE6A  1C40     		add r0, r0, #1

005BCE6C  F8DF 704C		ldr r7, [pc, #+76] ; 0x6
005BCE70  53F0     		strh r0, [r6, +r7]

005BCE72  E784     		b #-248 ; 0x005BCD7E

005BCE74  F8DF 704C		ldr r7, [pc, #+76] ; 0x1C
005BCE78  59F0     		ldr r0, [r6, +r7]

005BCE7A  F8DF 704C		ldr r7, [pc, #+76] ; 0x24
005BCE7E  59F7     		ldr r7, [r6, +r7]
005BCE80  1BC0     		sub r0, r0, r7

005BCE82  F8DF 7044		ldr r7, [pc, #+68] ; 0x24
005BCE86  51F0     		str r0, [r6, +r7]

005BCE88  F8DF 703C		ldr r7, [pc, #+60] ; 0x24
005BCE8C  59F0     		ldr r0, [r6, +r7]

005BCE8E  B082     		sub sp, sp, #8
005BCE90  F8CD 1000		str r1, [sp]
005BCE94  F44F 7180		mov r1, #256 ; 256
005BCE98  FBB0 F0F1		udiv r0, r0, r1
005BCE9C  F8DD 1000		ldr r1, [sp]
005BCEA0  B002     		add sp, sp, #8

005BCEA2  F8DF 701C		ldr r7, [pc, #+28] ; 0x18
005BCEA6  59F5     		ldr r5, [r6, +r7]
005BCEA8  F8DF 7034		ldr r7, [pc, #+52] ; 0xBA
005BCEAC  EB07 0705		add r7, r7, r5, lsl #0
005BCEB0  55F0     		strb r0, [r6, +r7]

005BCEB2  F8DF 700C		ldr r7, [pc, #+12] ; 0x18
005BCEB6  59F0     		ldr r0, [r6, +r7]

005BCEB8  E044     		b #136

005BCEBC  00000006		; 0x00000006
005BCEC0  00000018		; 0x00000018
005BCEC4  0000001C		; 0x0000001C
005BCEC8  00000024		; 0x00000024
005BCECC  00000028		; 0x00000028
005BCED0  00000030		; 0x00000030
005BCED4  00000034		; 0x00000034
005BCED8  0000008C		; 0x0000008C
005BCEDC  0000008E		; 0x0000008E
005BCEE0  000000BA		; 0x000000BA
005BCEE4  000000BC		; 0x000000BC
005BCEE8  000000BD		; 0x000000BD
005BCEEC  00000130		; 0x00000130
005BCEF0  00000138		; 0x00000138
005BCEF4  00000152		; 0x00000152
005BCEF8  00000153		; 0x00000153
005BCEFC  0000016C		; 0x0000016C
005BCF00  000001A6		; 0x000001A6
005BCF04  000001A8		; 0x000001A8
005BCF08  000001AA		; 0x000001AA
005BCF0C  000001AC		; 0x000001AC
005BCF10  004907E5		; 0x004907E5
005BCF14  005BA20C		; 0x005BA20C
005BCF18  005BA224		; 0x005BA224
005BCF1C  005BA228		; 0x005BA228
005BCF20  005BA244		; 0x005BA244
005BCF24  005BA254		; 0x005BA254
005BCF28  005BA258		; 0x005BA258
005BCF2C  005BA25C		; 0x005BA25C
005BCF30  005BA274		; 0x005BA274
005BCF34  005BA29C		; 0x005BA29C
005BCF38  005BA2C4		; 0x005BA2C4
005BCF3C  005BA2C8		; 0x005BA2C8
005BCF40  005BA2CC		; 0x005BA2CC

005BCF44  1C40     		add r0, r0, #1

005BCF46  F85F 704C		ldr r7, [pc, #-76] ; 0x16C
005BCF4A  51F0     		str r0, [r6, +r7]

005BCF4C  F85F 7088		ldr r7, [pc, #-136] ; 0x24
005BCF50  59F0     		ldr r0, [r6, +r7]

005BCF52  F85F 7058		ldr r7, [pc, #-88] ; 0x16C
005BCF56  59F5     		ldr r5, [r6, +r7]
005BCF58  F85F 707C		ldr r7, [pc, #-124] ; 0xBA
005BCF5C  EB07 0705		add r7, r7, r5, lsl #0
005BCF60  55F0     		strb r0, [r6, +r7]

005BCF62  F8DF 7590		ldr r7, [pc, #+1424] ; 0x8
005BCF66  59F0     		ldr r0, [r6, +r7]

005BCF68  2700     		mov r7, #0 ; 0
005BCF6A  42B8     		cmp r0, r7
005BCF6C  BF08 2000		eqmov r0, #0
005BCF70  BF18 2001		nemov r0, #1

005BCF74  2800     		cmp r0, #0
005BCF76  D058     		beq #176 ; 0x005BD02A


005BCF7A  4630     		mov r0, r6
005BCF7C  F85F 70B8		ldr r7, [pc, #-184] ; 0x24
005BCF80  19C0     		add r0, r0, r7

005BCF82  F8DF 7588		ldr r7, [pc, #+1416] ; 0x15C
005BCF86  51F0     		str r0, [r6, +r7]

005BCF88  F8DF 7568		ldr r7, [pc, #+1384] ; 0x8
005BCF8C  59F0     		ldr r0, [r6, +r7]

005BCF8E  B082     		sub sp, sp, #8
005BCF90  F8DF 7578		ldr r7, [pc, #+1400] ; 0x15C
005BCF94  59F7     		ldr r7, [r6, +r7]
005BCF96  F8CD 7000		str r7, [sp]
005BCF9A  232A     		mov r3, #42 ; 42
005BCF9C  F8DF 759C		ldr r7, [pc, #+1436] ; 0x5BA2D0
005BCFA0  463A     		mov r2, r7
005BCFA2  2180     		mov r1, #128 ; 128
005BCFA4  4600     		mov r0, r0
005BCFA6  F85F 4948		ldr r4, [pc, #-2376] ; 0x48F96D
005BCFAA  F044 0401		orr r4, r4, #1
005BCFAE  47A0     		blx r4
005BCFB0  B002     		add sp, sp, #8

005BCFB2  F85F 70F4		ldr r7, [pc, #-244] ; 0x18
005BCFB6  51F0     		str r0, [r6, +r7]

005BCFB8  F85F 70F8		ldr r7, [pc, #-248] ; 0x1C
005BCFBC  59F0     		ldr r0, [r6, +r7]

005BCFBE  F85F 70F8		ldr r7, [pc, #-248] ; 0x24
005BCFC2  59F7     		ldr r7, [r6, +r7]
005BCFC4  1BC0     		sub r0, r0, r7

005BCFC6  F8DF 7544		ldr r7, [pc, #+1348] ; 0x15C
005BCFCA  51F0     		str r0, [r6, +r7]

005BCFCC  F8DF 7524		ldr r7, [pc, #+1316] ; 0x8
005BCFD0  59F0     		ldr r0, [r6, +r7]

005BCFD2  B082     		sub sp, sp, #8
005BCFD4  F8DF 7534		ldr r7, [pc, #+1332] ; 0x15C
005BCFD8  59F7     		ldr r7, [r6, +r7]
005BCFDA  F8CD 7000		str r7, [sp]
005BCFDE  2332     		mov r3, #50 ; 50
005BCFE0  F8DF 755C		ldr r7, [pc, #+1372] ; 0x5BA2D8
005BCFE4  463A     		mov r2, r7
005BCFE6  2180     		mov r1, #128 ; 128
005BCFE8  4600     		mov r0, r0
005BCFEA  F8DF 453C		ldr r4, [pc, #+1340] ; 0x48FB19
005BCFEE  F044 0401		orr r4, r4, #1
005BCFF2  47A0     		blx r4
005BCFF4  B002     		add sp, sp, #8

005BCFF6  F85F 7138		ldr r7, [pc, #-312] ; 0x18
005BCFFA  51F0     		str r0, [r6, +r7]

005BCFFC  F8DF 0544		ldr r0, [pc, #+1348] ; 0x5BA2DC

005BD000  F8DF 7508		ldr r7, [pc, #+1288] ; 0x15C
005BD004  51F0     		str r0, [r6, +r7]

005BD006  2001     		mov r0, #1 ; 1

005BD008  F8DF 74E8		ldr r7, [pc, #+1256] ; 0x8
005BD00C  59F3     		ldr r3, [r6, +r7]
005BD00E  F8DF 74FC		ldr r7, [pc, #+1276] ; 0x15C
005BD012  59F2     		ldr r2, [r6, +r7]
005BD014  F44F 7180		mov r1, #256 ; 256
005BD018  4600     		mov r0, r0
005BD01A  F8DF 4510		ldr r4, [pc, #+1296] ; 0x48FE35
005BD01E  F044 0401		orr r4, r4, #1
005BD022  47A0     		blx r4

005BD024  F85F 7168		ldr r7, [pc, #-360] ; 0x18
005BD028  51F0     		str r0, [r6, +r7]

005BD02A  F8DF 74CC		ldr r7, [pc, #+1228] ; 0xC
005BD02E  5DF0     		ldrb r0, [r6, +r7]
005BD030  F8DF 74C8		ldr r7, [pc, #+1224] ; 0xD
005BD034  55F0     		strb r0, [r6, +r7]

005BD036  E259     		b #1202 ; 0x005BD4EC


005BD03A  F85F 7180		ldr r7, [pc, #-384] ; 0x6
005BD03E  5BF0     		ldrh r0, [r6, +r7]

005BD040  1E40     		sub r0, r0, #1

005BD042  F85F 717C		ldr r7, [pc, #-380] ; 0x24
005BD046  51F0     		str r0, [r6, +r7]

005BD048  2000     		mov r0, #0 ; 0
005BD04A  F8DF 74B8		ldr r7, [pc, #+1208] ; 0x44
005BD04E  51F0     		str r0, [r6, +r7]

005BD050  2000     		mov r0, #0 ; 0
005BD052  F8DF 74B4		ldr r7, [pc, #+1204] ; 0x48
005BD056  53F0     		strh r0, [r6, +r7]

005BD058  F8DF 7498		ldr r7, [pc, #+1176] ; 0x8
005BD05C  59F0     		ldr r0, [r6, +r7]

005BD05E  2700     		mov r7, #0 ; 0
005BD060  42B8     		cmp r0, r7
005BD062  BF08 2000		eqmov r0, #0
005BD066  BF18 2001		nemov r0, #1

005BD06A  2800     		cmp r0, #0
005BD06C  D01F     		beq #62 ; 0x005BD0AE


005BD070  4630     		mov r0, r6
005BD072  F85F 71AC		ldr r7, [pc, #-428] ; 0x24
005BD076  19C0     		add r0, r0, r7

005BD078  F8DF 7490		ldr r7, [pc, #+1168] ; 0x15C
005BD07C  51F0     		str r0, [r6, +r7]

005BD07E  F8DF 7474		ldr r7, [pc, #+1140] ; 0x8
005BD082  59F0     		ldr r0, [r6, +r7]

005BD084  B082     		sub sp, sp, #8
005BD086  F8DF 7484		ldr r7, [pc, #+1156] ; 0x15C
005BD08A  59F7     		ldr r7, [r6, +r7]
005BD08C  F8CD 7000		str r7, [sp]
005BD090  232A     		mov r3, #42 ; 42
005BD092  F8DF 74B4		ldr r7, [pc, #+1204] ; 0x5BA2E0
005BD096  463A     		mov r2, r7
005BD098  2180     		mov r1, #128 ; 128
005BD09A  4600     		mov r0, r0
005BD09C  F85F 4A40		ldr r4, [pc, #-2624] ; 0x48F96D
005BD0A0  F044 0401		orr r4, r4, #1
005BD0A4  47A0     		blx r4
005BD0A6  B002     		add sp, sp, #8

005BD0A8  F85F 71EC		ldr r7, [pc, #-492] ; 0x18
005BD0AC  51F0     		str r0, [r6, +r7]

005BD0AE  F85F 71E8		ldr r7, [pc, #-488] ; 0x24
005BD0B2  59F0     		ldr r0, [r6, +r7]

005BD0B4  2800     		cmp r0, #0
005BD0B6  BF08 2000		eqmov r0, #0
005BD0BA  BF18 2001		nemov r0, #1

005BD0BE  2800     		cmp r0, #0
005BD0C0  D07B     		beq #246 ; 0x005BD1BA


005BD0C4  F85F 7200		ldr r7, [pc, #-512] ; 0x24
005BD0C8  59F0     		ldr r0, [r6, +r7]

005BD0CA  2180     		mov r1, #128 ; 128
005BD0CC  F8DF 448C		ldr r4, [pc, #+1164] ; 0x5BA34C
005BD0D0  F044 0401		orr r4, r4, #1
005BD0D4  47A0     		blx r4

005BD0D6  F85F 7218		ldr r7, [pc, #-536] ; 0x18
005BD0DA  51F0     		str r0, [r6, +r7]

005BD0DC  F85F 7218		ldr r7, [pc, #-536] ; 0x24
005BD0E0  59F0     		ldr r0, [r6, +r7]

005BD0E2  B082     		sub sp, sp, #8
005BD0E4  F8CD 1000		str r1, [sp]
005BD0E8  2180     		mov r1, #128 ; 128
005BD0EA  FBB0 F0F1		udiv r0, r0, r1
005BD0EE  F8DD 1000		ldr r1, [sp]
005BD0F2  B002     		add sp, sp, #8

005BD0F4  F85F 7230		ldr r7, [pc, #-560] ; 0x24
005BD0F8  51F0     		str r0, [r6, +r7]

005BD0FA  F85F 7234		ldr r7, [pc, #-564] ; 0x24
005BD0FE  59F0     		ldr r0, [r6, +r7]

005BD100  2800     		cmp r0, #0
005BD102  BF08 2000		eqmov r0, #0
005BD106  BF18 2001		nemov r0, #1

005BD10A  2800     		cmp r0, #0
005BD10C  D008     		beq #16 ; 0x005BD120


005BD110  F85F 7254		ldr r7, [pc, #-596] ; 0x18
005BD114  59F0     		ldr r0, [r6, +r7]

005BD116  2780     		mov r7, #128 ; 128
005BD118  4338     		orr r0, r0, r7

005BD11A  F85F 725C		ldr r7, [pc, #-604] ; 0x18
005BD11E  51F0     		str r0, [r6, +r7]

005BD120  2008     		mov r0, #8 ; 8

005BD122  F8DF 73E4		ldr r7, [pc, #+996] ; 0x48
005BD126  5BF7     		ldrh r7, [r6, +r7]
005BD128  4378     		mul r0, r0, r7

005BD12A  F8DF 73EC		ldr r7, [pc, #+1004] ; 0x178
005BD12E  53F0     		strh r0, [r6, +r7]

005BD130  F85F 7274		ldr r7, [pc, #-628] ; 0x18
005BD134  59F0     		ldr r0, [r6, +r7]

005BD136  F8DF 73E0		ldr r7, [pc, #+992] ; 0x178
005BD13A  5BF7     		ldrh r7, [r6, +r7]
005BD13C  E92D 0006		stmdb sp!, { r1, r2 }
005BD140  40B8     		lsl r0, r0, r7
005BD142  E8BD 0006		ldmia sp!, { r1, r2 }

005BD146  F8DF 73BC		ldr r7, [pc, #+956] ; 0x44
005BD14A  59F7     		ldr r7, [r6, +r7]
005BD14C  4338     		orr r0, r0, r7

005BD14E  F8DF 73B4		ldr r7, [pc, #+948] ; 0x44
005BD152  51F0     		str r0, [r6, +r7]

005BD154  F8DF 73B0		ldr r7, [pc, #+944] ; 0x48
005BD158  5BF0     		ldrh r0, [r6, +r7]

005BD15A  1C40     		add r0, r0, #1

005BD15C  F8DF 73A8		ldr r7, [pc, #+936] ; 0x48
005BD160  53F0     		strh r0, [r6, +r7]

005BD162  F8DF 7390		ldr r7, [pc, #+912] ; 0x8
005BD166  59F0     		ldr r0, [r6, +r7]

005BD168  2700     		mov r7, #0 ; 0
005BD16A  42B8     		cmp r0, r7
005BD16C  BF08 2000		eqmov r0, #0
005BD170  BF18 2001		nemov r0, #1

005BD174  2800     		cmp r0, #0
005BD176  D01F     		beq #62 ; 0x005BD1B8


005BD17A  4630     		mov r0, r6
005BD17C  F85F 72C0		ldr r7, [pc, #-704] ; 0x18
005BD180  19C0     		add r0, r0, r7

005BD182  F8DF 7388		ldr r7, [pc, #+904] ; 0x15C
005BD186  51F0     		str r0, [r6, +r7]

005BD188  F8DF 7368		ldr r7, [pc, #+872] ; 0x8
005BD18C  59F0     		ldr r0, [r6, +r7]

005BD18E  B082     		sub sp, sp, #8
005BD190  F8DF 7378		ldr r7, [pc, #+888] ; 0x15C
005BD194  59F7     		ldr r7, [r6, +r7]
005BD196  F8CD 7000		str r7, [sp]
005BD19A  232A     		mov r3, #42 ; 42
005BD19C  F8DF 73AC		ldr r7, [pc, #+940] ; 0x5BA2EC
005BD1A0  463A     		mov r2, r7
005BD1A2  2180     		mov r1, #128 ; 128
005BD1A4  4600     		mov r0, r0
005BD1A6  F8DF 4380		ldr r4, [pc, #+896] ; 0x48FB19
005BD1AA  F044 0401		orr r4, r4, #1
005BD1AE  47A0     		blx r4
005BD1B0  B002     		add sp, sp, #8

005BD1B2  F85F 72F4		ldr r7, [pc, #-756] ; 0x18
005BD1B6  51F0     		str r0, [r6, +r7]

005BD1B8  E779     		b #-270 ; 0x005BD0AE

005BD1BA  2001     		mov r0, #1 ; 1

005BD1BC  F8DF 7348		ldr r7, [pc, #+840] ; 0x48
005BD1C0  5BF7     		ldrh r7, [r6, +r7]
005BD1C2  19C0     		add r0, r0, r7

005BD1C4  F8DF 7350		ldr r7, [pc, #+848] ; 0x178
005BD1C8  53F0     		strh r0, [r6, +r7]

005BD1CA  F8DF 734C		ldr r7, [pc, #+844] ; 0x178
005BD1CE  5BF5     		ldrh r5, [r6, +r7]
005BD1D0  F85F 72F4		ldr r7, [pc, #-756] ; 0xBA
005BD1D4  EB07 0705		add r7, r7, r5, lsl #0
005BD1D8  19F0     		add r0, r6, r7

005BD1DA  F8DF 7330		ldr r7, [pc, #+816] ; 0x15C
005BD1DE  51F0     		str r0, [r6, +r7]

005BD1E0  4630     		mov r0, r6
005BD1E2  F85F 7BC4		ldr r7, [pc, #-3012] ; 0xBB
005BD1E6  19C0     		add r0, r0, r7

005BD1E8  F8DF 7330		ldr r7, [pc, #+816] ; 0x184
005BD1EC  51F0     		str r0, [r6, +r7]

005BD1EE  F8DF 731C		ldr r7, [pc, #+796] ; 0x15C
005BD1F2  59F0     		ldr r0, [r6, +r7]

005BD1F4  F8DF 730C		ldr r7, [pc, #+780] ; 0x44
005BD1F8  59F2     		ldr r2, [r6, +r7]
005BD1FA  F8DF 7320		ldr r7, [pc, #+800] ; 0x184
005BD1FE  59F1     		ldr r1, [r6, +r7]
005BD200  4600     		mov r0, r0
005BD202  F85F 42F4		ldr r4, [pc, #-756] ; 0x4907E5
005BD206  F044 0401		orr r4, r4, #1
005BD20A  47A0     		blx r4

005BD20C  F85F 7350		ldr r7, [pc, #-848] ; 0x18
005BD210  51F0     		str r0, [r6, +r7]

005BD212  2000     		mov r0, #0 ; 0

005BD214  F85F 7358		ldr r7, [pc, #-856] ; 0x18
005BD218  51F0     		str r0, [r6, +r7]

005BD21A  F85F 735C		ldr r7, [pc, #-860] ; 0x18
005BD21E  59F0     		ldr r0, [r6, +r7]

005BD220  B082     		sub sp, sp, #8
005BD222  F8CD 0000		str r0, [sp]
005BD226  F8DF 72E0		ldr r7, [pc, #+736] ; 0x48
005BD22A  5BF0     		ldrh r0, [r6, +r7]

005BD22C  1E40     		sub r0, r0, #1

005BD22E  4607     		mov r7, r0
005BD230  F8DD 0000		ldr r0, [sp]
005BD234  B002     		add sp, sp, #8
005BD236  42B8     		cmp r0, r7
005BD238  BF98 2000		lsmov r0, #0
005BD23C  BF88 2001		himov r0, #1

005BD240  2800     		cmp r0, #0
005BD242  D12C     		bne #88 ; 0x005BD29E


005BD246  F85F 7388		ldr r7, [pc, #-904] ; 0x18
005BD24A  59F0     		ldr r0, [r6, +r7]

005BD24C  1C40     		add r0, r0, #1

005BD24E  F85F 7354		ldr r7, [pc, #-852] ; 0x16C
005BD252  51F0     		str r0, [r6, +r7]

005BD254  2008     		mov r0, #8 ; 8

005BD256  F85F 7398		ldr r7, [pc, #-920] ; 0x18
005BD25A  59F7     		ldr r7, [r6, +r7]
005BD25C  4378     		mul r0, r0, r7

005BD25E  F8DF 72C0		ldr r7, [pc, #+704] ; 0x188
005BD262  51F0     		str r0, [r6, +r7]

005BD264  F8DF 729C		ldr r7, [pc, #+668] ; 0x44
005BD268  59F0     		ldr r0, [r6, +r7]

005BD26A  F8DF 72B4		ldr r7, [pc, #+692] ; 0x188
005BD26E  59F7     		ldr r7, [r6, +r7]
005BD270  E92D 0006		stmdb sp!, { r1, r2 }
005BD274  40F8     		lsr r0, r0, r7
005BD276  E8BD 0006		ldmia sp!, { r1, r2 }

005BD27A  27FF     		mov r7, #255 ; 255
005BD27C  4038     		and r0, r0, r7

005BD27E  F85F 7384		ldr r7, [pc, #-900] ; 0x16C
005BD282  59F5     		ldr r5, [r6, +r7]
005BD284  F85F 73A8		ldr r7, [pc, #-936] ; 0xBA
005BD288  EB07 0705		add r7, r7, r5, lsl #0
005BD28C  55F0     		strb r0, [r6, +r7]

005BD28E  F85F 73D0		ldr r7, [pc, #-976] ; 0x18
005BD292  59F0     		ldr r0, [r6, +r7]

005BD294  1C40     		add r0, r0, #1

005BD296  F85F 73D8		ldr r7, [pc, #-984] ; 0x18
005BD29A  51F0     		str r0, [r6, +r7]

005BD29C  E7BD     		b #-134 ; 0x005BD21A

005BD29E  F85F 73E4		ldr r7, [pc, #-996] ; 0x6
005BD2A2  5BF0     		ldrh r0, [r6, +r7]

005BD2A4  F8DF 7260		ldr r7, [pc, #+608] ; 0x48
005BD2A8  5BF7     		ldrh r7, [r6, +r7]
005BD2AA  19C0     		add r0, r0, r7

005BD2AC  F85F 73F4		ldr r7, [pc, #-1012] ; 0x6
005BD2B0  53F0     		strh r0, [r6, +r7]

005BD2B2  F8DF 7240		ldr r7, [pc, #+576] ; 0x8
005BD2B6  59F0     		ldr r0, [r6, +r7]

005BD2B8  2700     		mov r7, #0 ; 0
005BD2BA  42B8     		cmp r0, r7
005BD2BC  BF08 2000		eqmov r0, #0
005BD2C0  BF18 2001		nemov r0, #1

005BD2C4  2800     		cmp r0, #0
005BD2C6  D036     		beq #108 ; 0x005BD336


005BD2CA  4630     		mov r0, r6
005BD2CC  F8DF 7238		ldr r7, [pc, #+568] ; 0x48
005BD2D0  19C0     		add r0, r0, r7

005BD2D2  F8DF 7238		ldr r7, [pc, #+568] ; 0x15C
005BD2D6  51F0     		str r0, [r6, +r7]

005BD2D8  F8DF 7218		ldr r7, [pc, #+536] ; 0x8
005BD2DC  59F0     		ldr r0, [r6, +r7]

005BD2DE  B082     		sub sp, sp, #8
005BD2E0  F8DF 7228		ldr r7, [pc, #+552] ; 0x15C
005BD2E4  59F7     		ldr r7, [r6, +r7]
005BD2E6  F8CD 7000		str r7, [sp]
005BD2EA  2320     		mov r3, #32 ; 32
005BD2EC  F8DF 7260		ldr r7, [pc, #+608] ; 0x5BA2F4
005BD2F0  463A     		mov r2, r7
005BD2F2  2180     		mov r1, #128 ; 128
005BD2F4  4600     		mov r0, r0
005BD2F6  F8DF 4230		ldr r4, [pc, #+560] ; 0x48FB19
005BD2FA  F044 0401		orr r4, r4, #1
005BD2FE  47A0     		blx r4
005BD300  B002     		add sp, sp, #8

005BD302  F85F 7444		ldr r7, [pc, #-1092] ; 0x18
005BD306  51F0     		str r0, [r6, +r7]

005BD308  F8DF 0248		ldr r0, [pc, #+584] ; 0x5BA300

005BD30C  F8DF 71FC		ldr r7, [pc, #+508] ; 0x15C
005BD310  51F0     		str r0, [r6, +r7]

005BD312  2001     		mov r0, #1 ; 1

005BD314  F8DF 71DC		ldr r7, [pc, #+476] ; 0x8
005BD318  59F3     		ldr r3, [r6, +r7]
005BD31A  F8DF 71F0		ldr r7, [pc, #+496] ; 0x15C
005BD31E  59F2     		ldr r2, [r6, +r7]
005BD320  F44F 7100		mov r1, #512 ; 512
005BD324  4600     		mov r0, r0
005BD326  F8DF 4204		ldr r4, [pc, #+516] ; 0x48FE35
005BD32A  F044 0401		orr r4, r4, #1
005BD32E  47A0     		blx r4

005BD330  F85F 7474		ldr r7, [pc, #-1140] ; 0x18
005BD334  51F0     		str r0, [r6, +r7]

005BD336  F8DF 71C0		ldr r7, [pc, #+448] ; 0xC
005BD33A  5DF0     		ldrb r0, [r6, +r7]
005BD33C  F8DF 71BC		ldr r7, [pc, #+444] ; 0xD
005BD340  55F0     		strb r0, [r6, +r7]

005BD342  E0D3     		b #422 ; 0x005BD4EC


005BD346  F8DF 71B8		ldr r7, [pc, #+440] ; 0x14
005BD34A  59F0     		ldr r0, [r6, +r7]

005BD34C  4600     		mov r0, r0
005BD34E  F8DF 41E4		ldr r4, [pc, #+484] ; 0x490CBD
005BD352  F044 0401		orr r4, r4, #1
005BD356  47A0     		blx r4

005BD358  F8DF 71B4		ldr r7, [pc, #+436] ; 0x168
005BD35C  53F0     		strh r0, [r6, +r7]

005BD35E  F8DF 71A0		ldr r7, [pc, #+416] ; 0x14
005BD362  59F0     		ldr r0, [r6, +r7]

005BD364  4600     		mov r0, r0
005BD366  F8DF 41D0		ldr r4, [pc, #+464] ; 0x490D6D
005BD36A  F044 0401		orr r4, r4, #1
005BD36E  47A0     		blx r4

005BD370  F85F 7478		ldr r7, [pc, #-1144] ; 0x16C
005BD374  51F0     		str r0, [r6, +r7]

005BD376  F85F 747C		ldr r7, [pc, #-1148] ; 0x16C
005BD37A  59F0     		ldr r0, [r6, +r7]

005BD37C  F8DF 71A4		ldr r7, [pc, #+420] ; 0x1AE
005BD380  53F0     		strh r0, [r6, +r7]

005BD382  F8DF 718C		ldr r7, [pc, #+396] ; 0x168
005BD386  5FF0     		ldrsh r0, [r6, +r7]

005BD388  F8DF 7198		ldr r7, [pc, #+408] ; 0x1AE
005BD38C  5FF7     		ldrsh r7, [r6, +r7]
005BD38E  42B8     		cmp r0, r7
005BD390  BF08 2000		eqmov r0, #0
005BD394  BF18 2001		nemov r0, #1

005BD398  2800     		cmp r0, #0
005BD39A  D002     		beq #4 ; 0x005BD3A2


005BD39E  E0A5     		b #330 ; 0x005BD4EC


005BD3A2  4630     		mov r0, r6
005BD3A4  F85F 74C8		ldr r7, [pc, #-1224] ; 0xBA
005BD3A8  19C0     		add r0, r0, r7

005BD3AA  F8DF 7160		ldr r7, [pc, #+352] ; 0x15C
005BD3AE  51F0     		str r0, [r6, +r7]

005BD3B0  F85F 74F8		ldr r7, [pc, #-1272] ; 0x6
005BD3B4  5BF0     		ldrh r0, [r6, +r7]

005BD3B6  F8DF 7158		ldr r7, [pc, #+344] ; 0x168
005BD3BA  53F0     		strh r0, [r6, +r7]

005BD3BC  F8DF 714C		ldr r7, [pc, #+332] ; 0x15C
005BD3C0  59F0     		ldr r0, [r6, +r7]

005BD3C2  F8DF 713C		ldr r7, [pc, #+316] ; 0x14
005BD3C6  59F3     		ldr r3, [r6, +r7]
005BD3C8  2201     		mov r2, #1 ; 1
005BD3CA  F8DF 7144		ldr r7, [pc, #+324] ; 0x168
005BD3CE  5FF1     		ldrsh r1, [r6, +r7]
005BD3D0  4600     		mov r0, r0
005BD3D2  F8DF 415C		ldr r4, [pc, #+348] ; 0x490C01
005BD3D6  F044 0401		orr r4, r4, #1
005BD3DA  47A0     		blx r4

005BD3DC  F85F 7520		ldr r7, [pc, #-1312] ; 0x18
005BD3E0  51F0     		str r0, [r6, +r7]

005BD3E2  F8DF 7118		ldr r7, [pc, #+280] ; 0xD
005BD3E6  5DF0     		ldrb r0, [r6, +r7]

005BD3E8  1C40     		add r0, r0, #1

005BD3EA  F8DF 7110		ldr r7, [pc, #+272] ; 0xD
005BD3EE  55F0     		strb r0, [r6, +r7]

005BD3F0  F8DF 7100		ldr r7, [pc, #+256] ; 0x8
005BD3F4  59F0     		ldr r0, [r6, +r7]

005BD3F6  2700     		mov r7, #0 ; 0
005BD3F8  42B8     		cmp r0, r7
005BD3FA  BF08 2000		eqmov r0, #0
005BD3FE  BF18 2001		nemov r0, #1

005BD402  2800     		cmp r0, #0
005BD404  D03C     		beq #120 ; 0x005BD480


005BD408  F85F 7550		ldr r7, [pc, #-1360] ; 0x6
005BD40C  5BF0     		ldrh r0, [r6, +r7]

005BD40E  283F     		cmp r0, #63
005BD410  BFD8 2000		lemov r0, #0
005BD414  BFC8 2001		gtmov r0, #1

005BD418  2800     		cmp r0, #0
005BD41A  D004     		beq #8 ; 0x005BD426


005BD41E  203F     		mov r0, #63 ; 63
005BD420  F85F 7568		ldr r7, [pc, #-1384] ; 0x6
005BD424  53F0     		strh r0, [r6, +r7]

005BD426  2064     		mov r0, #100 ; 100

005BD428  F85F 7570		ldr r7, [pc, #-1392] ; 0x6
005BD42C  5BF7     		ldrh r7, [r6, +r7]
005BD42E  19C0     		add r0, r0, r7

005BD430  F8DF 70E4		ldr r7, [pc, #+228] ; 0x178
005BD434  53F0     		strh r0, [r6, +r7]

005BD436  F8DF 70E0		ldr r7, [pc, #+224] ; 0x178
005BD43A  5BF0     		ldrh r0, [r6, +r7]

005BD43C  F8DF 70D4		ldr r7, [pc, #+212] ; 0x170
005BD440  55F0     		strb r0, [r6, +r7]

005BD442  F8DF 0114		ldr r0, [pc, #+276] ; 0x5BA304

005BD446  F8DF 70C4		ldr r7, [pc, #+196] ; 0x15C
005BD44A  51F0     		str r0, [r6, +r7]

005BD44C  4630     		mov r0, r6
005BD44E  F85F 7570		ldr r7, [pc, #-1392] ; 0xBA
005BD452  19C0     		add r0, r0, r7

005BD454  F8DF 70C4		ldr r7, [pc, #+196] ; 0x184
005BD458  51F0     		str r0, [r6, +r7]

005BD45A  F8DF 70B8		ldr r7, [pc, #+184] ; 0x170
005BD45E  5DF0     		ldrb r0, [r6, +r7]

005BD460  F8DF 70B8		ldr r7, [pc, #+184] ; 0x184
005BD464  59F3     		ldr r3, [r6, +r7]
005BD466  F8DF 70A4		ldr r7, [pc, #+164] ; 0x15C
005BD46A  59F2     		ldr r2, [r6, +r7]
005BD46C  2101     		mov r1, #1 ; 1
005BD46E  4600     		mov r0, r0
005BD470  F8DF 40B8		ldr r4, [pc, #+184] ; 0x48FE35
005BD474  F044 0401		orr r4, r4, #1
005BD478  47A0     		blx r4

005BD47A  F85F 75BC		ldr r7, [pc, #-1468] ; 0x18
005BD47E  51F0     		str r0, [r6, +r7]

005BD480  E034     		b #104 ; 0x005BD4EC


005BD484  F8DF 7078		ldr r7, [pc, #+120] ; 0x14
005BD488  59F0     		ldr r0, [r6, +r7]

005BD48A  4600     		mov r0, r0
005BD48C  F8DF 40A4		ldr r4, [pc, #+164] ; 0x490CBD
005BD490  F044 0401		orr r4, r4, #1
005BD494  47A0     		blx r4

005BD496  F8DF 7078		ldr r7, [pc, #+120] ; 0x168
005BD49A  53F0     		strh r0, [r6, +r7]

005BD49C  F8DF 7060		ldr r7, [pc, #+96] ; 0x14
005BD4A0  59F0     		ldr r0, [r6, +r7]

005BD4A2  4600     		mov r0, r0
005BD4A4  F8DF 4090		ldr r4, [pc, #+144] ; 0x490D6D
005BD4A8  F044 0401		orr r4, r4, #1
005BD4AC  47A0     		blx r4

005BD4AE  F85F 75B4		ldr r7, [pc, #-1460] ; 0x16C
005BD4B2  51F0     		str r0, [r6, +r7]

005BD4B4  F85F 75BC		ldr r7, [pc, #-1468] ; 0x16C
005BD4B8  59F0     		ldr r0, [r6, +r7]

005BD4BA  F8DF 7068		ldr r7, [pc, #+104] ; 0x1AE
005BD4BE  53F0     		strh r0, [r6, +r7]

005BD4C0  F8DF 704C		ldr r7, [pc, #+76] ; 0x168
005BD4C4  5FF0     		ldrsh r0, [r6, +r7]

005BD4C6  F8DF 705C		ldr r7, [pc, #+92] ; 0x1AE
005BD4CA  5FF7     		ldrsh r7, [r6, +r7]
005BD4CC  42B8     		cmp r0, r7
005BD4CE  BF08 2000		eqmov r0, #0
005BD4D2  BF18 2001		nemov r0, #1

005BD4D6  2800     		cmp r0, #0
005BD4D8  D002     		beq #4 ; 0x005BD4E0


005BD4DC  E006     		b #12 ; 0x005BD4EC


005BD4E0  F8DF 7014		ldr r7, [pc, #+20] ; 0xC
005BD4E4  5DF0     		ldrb r0, [r6, +r7]
005BD4E6  F8DF 7014		ldr r7, [pc, #+20] ; 0xD
005BD4EA  55F0     		strb r0, [r6, +r7]

005BD4EC  E8BD 4040		ldmia sp!, { r6, lr }

005BD4F0  4770     		bx lr

005BD4F4  00000008		; 0x00000008
005BD4F8  0000000C		; 0x0000000C
005BD4FC  0000000D		; 0x0000000D
005BD500  00000014		; 0x00000014
005BD504  00000044		; 0x00000044
005BD508  00000048		; 0x00000048
005BD50C  0000015C		; 0x0000015C
005BD510  00000168		; 0x00000168
005BD514  00000170		; 0x00000170
005BD518  00000178		; 0x00000178
005BD51C  00000184		; 0x00000184
005BD520  00000188		; 0x00000188
005BD524  000001AE		; 0x000001AE
005BD528  0048FB19		; 0x0048FB19
005BD52C  0048FE35		; 0x0048FE35
005BD530  00490C01		; 0x00490C01
005BD534  00490CBD		; 0x00490CBD
005BD538  00490D6D		; 0x00490D6D
005BD53C  005BA2D0		; 0x005BA2D0
005BD540  005BA2D8		; 0x005BA2D8
005BD544  005BA2DC		; 0x005BA2DC
005BD548  005BA2E0		; 0x005BA2E0
005BD54C  005BA2EC		; 0x005BA2EC
005BD550  005BA2F4		; 0x005BA2F4
005BD554  005BA300		; 0x005BA300
005BD558  005BA304		; 0x005BA304
005BD55C  005BA34C		; 0x005BA34C


Frame allocation:

	0000 bit  0: VAR AFPublish
	0002 bit  0: VAR AFSubscribe
	0004       : VAR BIDx
	0008       : VAR BSpy
	000C       : VAR CaseBk
	000D       : VAR CaseNr
	000E bit  0: VAR ConnectOn
	0010       : VAR ErrorNr
	0014       : VAR Fp
	0018       : VAR i
	001C       : VAR IPtr
	0020 bit  0: VAR IsConnected
	0024       : VAR j
	0028       : VAR PIDIDx
	0029 bit  0: VAR PingOn
	002C       : VAR PingTBf
	0030 bit  0: VAR PublishOn
	0032       : VAR PublishPIDRx
	0042       : VAR PublishPIDTx
	0044       : VAR RLength
	0048       : VAR RLSize
	004A       : VAR RxBuffer
	008A       : VAR RxChrs
	008C bit  0: VAR SubscribeOn
	008E       : VAR SubscribePID
	0090       : FB TCPClient
	00B8       : VAR TLength
	00BA       : VAR TxBuffer
	00FC       : VAR ConnectionTBf
	0100       : VAR CTimeBf
	0108       : VAR SpyData
	0110 bit  0: VAR Enable
	0111 bit  0: VAR SpyOn
	0112 bit  0: VAR Publish
	0113 bit  0: VAR Subscribe
	0114       : VAR Server
	0118       : VAR Port
	011C       : VAR Username
	0120       : VAR Password
	0124       : VAR ClientID
	0128       : VAR KeepAlive
	012C       : VAR Flags
	0130       : VAR QoS
	0134       : VAR Topic
	0138       : VAR Value
	013C       : VAR VLength
	0140       : VAR TBufferRxD
	0144       : VAR TBLengthRxD
	0148       : VAR VBufferRxD
	014C       : VAR VBLengthRxD
	0150 bit  0: VAR Connected
	0151 bit  0: VAR Fault
	0152 bit  0: VAR Published
	0153 bit  0: VAR Subscribed
	0154 bit  0: VAR TopicRxD
	0156       : VAR VLengthRxD
	0158       : VAR CTime

END_FUNCTION_BLOCK
**************************************************
	List program: MQTTExchange
**************************************************

PROGRAM MQTTExchange

        VAR
MQTT : MQTTClient;	{ DE:"MQTT client FB" }
TopicRxD : STRING[ 64 ];	{ DE:"Topic received buffer" }
ValueRxD : STRING[ 64 ];	{ DE:"Value received buffer" }
CaseNr : USINT;	{ DE:"Program case" }
Topic : STRING[ 32 ] := 'IOCommand';	{ DE:"Topic name" }
DiPulse : BOOL;	{ DE:"Digital input pulse" }
	END_VAR

END_PROGRAM

005BD560  E92D 4DF0		stmdb sp!, { r4, r5, r6, r7, r8, r10, fp, lr }

#0		{SRC:MQTTExchange}
#1
#2
#3
#4
#5		{L:32}
(*) UNDEF
005BD564  F8DF 747C		ldr r7, [pc, #+1148] ; 0x20412E51
005BD568  7838     		ldrb r0, [r7]

#6		{L:32}
(-) BOOL
005BD56A  2800     		cmp r0, #0
005BD56C  D03A     		beq #116 ; 0x005BD5E4


#7
#8
#9
#10
#11		{L:33}
(*) BOOL
005BD570  2001     		mov r0, #1 ; 1
005BD572  F8DF 73E8		ldr r7, [pc, #+1000] ; 0x20410F45
005BD576  7038     		strb r0, [r7]

#12
#13
#14		{L:34}
(*) BOOL
005BD578  F8DF 03C0		ldr r0, [pc, #+960] ; 0x5BA308

#15		{L:34}
(*) DWORD
005BD57C  F8DF 73E8		ldr r7, [pc, #+1000] ; 0x20410F48
005BD580  6038     		str r0, [r7]

#16
#17
#18		{L:35}
(*) DWORD
005BD582  F8DF 73BC		ldr r7, [pc, #+956] ; 0x5BA322
005BD586  8838     		ldrh r0, [r7]
005BD588  F8DF 73E0		ldr r7, [pc, #+992] ; 0x20410F4C
005BD58C  8038     		strh r0, [r7]

#19
#20
#21		{L:36}
(*) UINT
005BD58E  2000     		mov r0, #0 ; 0
005BD590  F8DF 73DC		ldr r7, [pc, #+988] ; 0x20410F50
005BD594  6038     		str r0, [r7]

#22
#23
#24		{L:37}
(*) @USINT
005BD596  2000     		mov r0, #0 ; 0
005BD598  F8DF 73D8		ldr r7, [pc, #+984] ; 0x20410F54
005BD59C  6038     		str r0, [r7]

#25
#26
#27		{L:38}
(*) @USINT
005BD59E  F8DF 03A4		ldr r0, [pc, #+932] ; 0x5BA324

#28		{L:38}
(*) DWORD
005BD5A2  F8DF 73D4		ldr r7, [pc, #+980] ; 0x20410F58
005BD5A6  6038     		str r0, [r7]

#29
#30
#31		{L:39}
(*) DWORD
005BD5A8  20B4     		mov r0, #180 ; 180
005BD5AA  F8DF 73D0		ldr r7, [pc, #+976] ; 0x20410F5C
005BD5AE  8038     		strh r0, [r7]

#32
#33
#34		{L:40}
(*) UINT
005BD5B0  2000     		mov r0, #0 ; 0
005BD5B2  F8DF 73CC		ldr r7, [pc, #+972] ; 0x20410F60
005BD5B6  6038     		str r0, [r7]

#35
#36
#37		{L:41}
(*) DWORD
005BD5B8  2001     		mov r0, #1 ; 1
005BD5BA  F8DF 73C8		ldr r7, [pc, #+968] ; 0x20410F64
005BD5BE  7038     		strb r0, [r7]

#38
#39
#40		{L:42}
(*) USINT
005BD5C0  F8DF 03F4		ldr r0, [pc, #+1012] ; 0x20410FE4

#41		{L:42}
(*) DWORD
005BD5C4  F8DF 73CC		ldr r7, [pc, #+972] ; 0x20410F74
005BD5C8  6038     		str r0, [r7]

#42
#43
#44		{L:43}
(*) DWORD
005BD5CA  2041     		mov r0, #65 ; 65
005BD5CC  F8DF 73C8		ldr r7, [pc, #+968] ; 0x20410F78
005BD5D0  6038     		str r0, [r7]

#45
#46
#47		{L:44}
(*) UDINT
005BD5D2  F8DF 03E8		ldr r0, [pc, #+1000] ; 0x20411025

#48		{L:44}
(*) DWORD
005BD5D6  F8DF 73C4		ldr r7, [pc, #+964] ; 0x20410F7C
005BD5DA  6038     		str r0, [r7]

#49
#50
#51		{L:45}
(*) DWORD
005BD5DC  2041     		mov r0, #65 ; 65
005BD5DE  F8DF 73C0		ldr r7, [pc, #+960] ; 0x20410F80
005BD5E2  6038     		str r0, [r7]

#52
#53
#54
#55
#56
#57		{L:53}
(*) UDINT
005BD5E4  E92D 0021		stmdb sp!, { r0, r5 }
005BD5E8  F8DF 7368		ldr r7, [pc, #+872] ; 0x20410E34
005BD5EC  463D     		mov r5, r7
005BD5EE  F8DF 4360		ldr r4, [pc, #+864] ; 0x5BA358
005BD5F2  F044 0401		orr r4, r4, #1
005BD5F6  47A0     		blx r4
005BD5F8  E8BD 0021		ldmia sp!, { r0, r5 }

#58
#59
#60
#61		{L:54}
(*) UNDEF
005BD5FC  F8DF 73A8		ldr r7, [pc, #+936] ; 0x20410F85
005BD600  7838     		ldrb r0, [r7]

#62		{L:54}
(-) BOOL
005BD602  2800     		cmp r0, #0
005BD604  D004     		beq #8 ; 0x005BD610


#63
#64
#65
#66
#67		{L:54}
(*) BOOL
005BD608  2000     		mov r0, #0 ; 0
005BD60A  F8DF 73B4		ldr r7, [pc, #+948] ; 0x20411066
005BD60E  7038     		strb r0, [r7]

#68
#69
#70
#71
#72
#73
#74		{L:55}
(*) UNDEF
005BD610  F8DF 7390		ldr r7, [pc, #+912] ; 0x20410F84
005BD614  7838     		ldrb r0, [r7]

#75		{L:55}
(*) BOOL
005BD616  2800     		cmp r0, #0
005BD618  BF08 2001		eqmov r0, #1
005BD61C  BF18 2000		nemov r0, #0

#76		{L:55}
(-) BOOL
005BD620  2800     		cmp r0, #0
005BD622  D004     		beq #8 ; 0x005BD62E


#77
#78
#79
#80
#81		{L:55}
(*) BOOL
005BD626  2000     		mov r0, #0 ; 0
005BD628  F8DF 7394		ldr r7, [pc, #+916] ; 0x20411066
005BD62C  7038     		strb r0, [r7]

#82
#83
#84
#85
#86
#87		{L:56}
(*) USINT
005BD62E  F8DF 7374		ldr r7, [pc, #+884] ; 0x20410F84
005BD632  7838     		ldrb r0, [r7]
005BD634  F8DF 738C		ldr r7, [pc, #+908] ; 0x20411067
005BD638  7038     		strb r0, [r7]

#88
#89
#90
#91		{L:63}
(*) UNDEF
005BD63A  F8DF 7378		ldr r7, [pc, #+888] ; 0x20410F88
005BD63E  7838     		ldrb r0, [r7]

#92		{L:63}
(-) BOOL
005BD640  2800     		cmp r0, #0
005BD642  D068     		beq #208 ; 0x005BD716


#93
#94
#95
#96
#97
#98		{L:67}
(*) BOOL
005BD646  F8DF 0370		ldr r0, [pc, #+880] ; 0x20410FE4

#99		{L:67}
(*) DWORD
005BD64A  F8DF 737C		ldr r7, [pc, #+892] ; 0x20411068
005BD64E  6038     		str r0, [r7]

#100		{L:67}
(*) DWORD
005BD650  F8DF 0378		ldr r0, [pc, #+888] ; 0x2041106C

#101		{L:67}
(*) DWORD
005BD654  F8DF 7384		ldr r7, [pc, #+900] ; 0x20411090
005BD658  6038     		str r0, [r7]

#102		{L:67}
(*) UNDEF
005BD65A  F8DF 736C		ldr r7, [pc, #+876] ; 0x20411068
005BD65E  6838     		ldr r0, [r7]

#103		{L:67}
(-) @UNDEF
005BD660  2200     		mov r2, #0 ; 0
005BD662  F8DF 7378		ldr r7, [pc, #+888] ; 0x20411090
005BD666  6839     		ldr r1, [r7]
005BD668  4600     		mov r0, r0
005BD66A  F8DF 42C8		ldr r4, [pc, #+712] ; 0x4908DD
005BD66E  F044 0401		orr r4, r4, #1
005BD672  47A0     		blx r4

#104		{L:67}
(*) @USINT
005BD674  2700     		mov r7, #0 ; 0
005BD676  42B8     		cmp r0, r7
005BD678  BF08 2000		eqmov r0, #0
005BD67C  BF18 2001		nemov r0, #1

#105		{L:67}
(-) BOOL
005BD680  2800     		cmp r0, #0
005BD682  D048     		beq #144 ; 0x005BD716


#106
#107
#108
#109
#110
#111		{L:71}
(*) BOOL
005BD686  F8DF 0334		ldr r0, [pc, #+820] ; 0x20411025

#112		{L:71}
(*) DWORD
005BD68A  F8DF 733C		ldr r7, [pc, #+828] ; 0x20411068
005BD68E  6038     		str r0, [r7]

#113		{L:71}
(*) @UNDEF
005BD690  F8DF 02B4		ldr r0, [pc, #+692] ; 0x5BA32C

#114		{L:71}
(*) DWORD
005BD694  F8DF 7344		ldr r7, [pc, #+836] ; 0x20411090
005BD698  6038     		str r0, [r7]

#115		{L:71}
(*) UNDEF
005BD69A  F8DF 732C		ldr r7, [pc, #+812] ; 0x20411068
005BD69E  6838     		ldr r0, [r7]

#116		{L:71}
(-) @UNDEF
005BD6A0  2200     		mov r2, #0 ; 0
005BD6A2  F8DF 7338		ldr r7, [pc, #+824] ; 0x20411090
005BD6A6  6839     		ldr r1, [r7]
005BD6A8  4600     		mov r0, r0
005BD6AA  F8DF 4288		ldr r4, [pc, #+648] ; 0x4908DD
005BD6AE  F044 0401		orr r4, r4, #1
005BD6B2  47A0     		blx r4

#117		{L:71}
(*) @USINT
005BD6B4  2700     		mov r7, #0 ; 0
005BD6B6  42B8     		cmp r0, r7
005BD6B8  BF08 2000		eqmov r0, #0
005BD6BC  BF18 2001		nemov r0, #1

#118		{L:71}
(-) BOOL
005BD6C0  2800     		cmp r0, #0
005BD6C2  D004     		beq #8 ; 0x005BD6CE


#119
#120
#121
#122
#123		{L:72}
(*) BOOL
005BD6C6  2000     		mov r0, #0 ; 0
005BD6C8  F8DF 7304		ldr r7, [pc, #+772] ; 0x2041108D
005BD6CC  7038     		strb r0, [r7]

#124
#125
#126
#127
#128
#129
#130		{L:77}
(*) BOOL
005BD6CE  F8DF 02EC		ldr r0, [pc, #+748] ; 0x20411025

#131		{L:77}
(*) DWORD
005BD6D2  F8DF 72F4		ldr r7, [pc, #+756] ; 0x20411068
005BD6D6  6038     		str r0, [r7]

#132		{L:77}
(*) DWORD
005BD6D8  F8DF 0270		ldr r0, [pc, #+624] ; 0x5BA330

#133		{L:77}
(*) DWORD
005BD6DC  F8DF 72FC		ldr r7, [pc, #+764] ; 0x20411090
005BD6E0  6038     		str r0, [r7]

#134		{L:77}
(*) UNDEF
005BD6E2  F8DF 72E4		ldr r7, [pc, #+740] ; 0x20411068
005BD6E6  6838     		ldr r0, [r7]

#135		{L:77}
(-) @UNDEF
005BD6E8  2200     		mov r2, #0 ; 0
005BD6EA  F8DF 72F0		ldr r7, [pc, #+752] ; 0x20411090
005BD6EE  6839     		ldr r1, [r7]
005BD6F0  4600     		mov r0, r0
005BD6F2  F8DF 4240		ldr r4, [pc, #+576] ; 0x4908DD
005BD6F6  F044 0401		orr r4, r4, #1
005BD6FA  47A0     		blx r4

#136		{L:77}
(*) @USINT
005BD6FC  2700     		mov r7, #0 ; 0
005BD6FE  42B8     		cmp r0, r7
005BD700  BF08 2000		eqmov r0, #0
005BD704  BF18 2001		nemov r0, #1

#137		{L:77}
(-) BOOL
005BD708  2800     		cmp r0, #0
005BD70A  D004     		beq #8 ; 0x005BD716


#138
#139
#140
#141
#142		{L:78}
(*) BOOL
005BD70E  2001     		mov r0, #1 ; 1
005BD710  F8DF 72BC		ldr r7, [pc, #+700] ; 0x2041108D
005BD714  7038     		strb r0, [r7]

#143
#144
#145
#146
#147
#148
#149
#150
#151
#152
#153
#154
#155
#156
#157		{L:95}
(*) UNDEF
005BD716  F8DF 72A8		ldr r7, [pc, #+680] ; 0x20411066
005BD71A  7838     		ldrb r0, [r7]

#158		{L:95}
(*) USINT
005BD71C  2800     		cmp r0, #0
005BD71E  BF18 2000		nemov r0, #0
005BD722  BF08 2001		eqmov r0, #1

#159
(-) BOOL
005BD726  2800     		cmp r0, #0
005BD728  D139     		bne #114 ; 0x005BD79E


#160
#161
#162		{L:107}
(*) UNDEF
005BD72C  F8DF 7290		ldr r7, [pc, #+656] ; 0x20411066
005BD730  7838     		ldrb r0, [r7]

#163		{L:107}
(*) USINT
005BD732  2801     		cmp r0, #1
005BD734  BF18 2000		nemov r0, #0
005BD738  BF08 2001		eqmov r0, #1

#164
(-) BOOL
005BD73C  2800     		cmp r0, #0
005BD73E  D156     		bne #172 ; 0x005BD7EE


#165
#166
#167		{L:116}
(*) UNDEF
005BD742  F8DF 727C		ldr r7, [pc, #+636] ; 0x20411066
005BD746  7838     		ldrb r0, [r7]

#168		{L:116}
(*) USINT
005BD748  280A     		cmp r0, #10
005BD74A  BF18 2000		nemov r0, #0
005BD74E  BF08 2001		eqmov r0, #1

#169
(-) BOOL
005BD752  2800     		cmp r0, #0
005BD754  D15E     		bne #188 ; 0x005BD814


#170
#171
#172		{L:124}
(*) UNDEF
005BD758  F8DF 7264		ldr r7, [pc, #+612] ; 0x20411066
005BD75C  7838     		ldrb r0, [r7]

#173		{L:124}
(*) USINT
005BD75E  280B     		cmp r0, #11
005BD760  BF18 2000		nemov r0, #0
005BD764  BF08 2001		eqmov r0, #1

#174
(-) BOOL
005BD768  2800     		cmp r0, #0
005BD76A  D165     		bne #202 ; 0x005BD838


#175
#176
#177		{L:135}
(*) UNDEF
005BD76E  F8DF 7250		ldr r7, [pc, #+592] ; 0x20411066
005BD772  7838     		ldrb r0, [r7]

#178		{L:135}
(*) USINT
005BD774  2814     		cmp r0, #20
005BD776  BF18 2000		nemov r0, #0
005BD77A  BF08 2001		eqmov r0, #1

#179
(-) BOOL
005BD77E  2800     		cmp r0, #0
005BD780  D171     		bne #226 ; 0x005BD866


#180
#181
#182		{L:157}
(*) UNDEF
005BD784  F8DF 7238		ldr r7, [pc, #+568] ; 0x20411066
005BD788  7838     		ldrb r0, [r7]

#183		{L:157}
(*) USINT
005BD78A  2815     		cmp r0, #21
005BD78C  BF18 2000		nemov r0, #0
005BD790  BF08 2001		eqmov r0, #1

#184
(-) BOOL
005BD794  2800     		cmp r0, #0
005BD796  F040 80B5		bne #362 ; 0x005BD904


#185
(-) BOOL
005BD79A  E0C8     		b #400 ; 0x005BD92E


#186
#187
#188
#189
#190
#191		{L:96}
(*) BOOL
005BD79E  F8DF 7238		ldr r7, [pc, #+568] ; 0x2041108F
005BD7A2  7838     		ldrb r0, [r7]
005BD7A4  F8DF 71B0		ldr r7, [pc, #+432] ; 0x20410F44
005BD7A8  7038     		strb r0, [r7]

#192
#193
#194
#195		{L:97}
(*) UNDEF
005BD7AA  F8DF 722C		ldr r7, [pc, #+556] ; 0x2041108F
005BD7AE  7838     		ldrb r0, [r7]

#196		{L:97}
(*) BOOL
005BD7B0  2800     		cmp r0, #0
005BD7B2  BF08 2001		eqmov r0, #1
005BD7B6  BF18 2000		nemov r0, #0

#197		{L:97}
(-) BOOL
005BD7BA  2800     		cmp r0, #0
005BD7BC  D002     		beq #4 ; 0x005BD7C4


#198
#199
#200
#201
#202
#203
(-) BOOL
005BD7C0  E0B5     		b #362 ; 0x005BD92E


#204
#205
#206
#207
#208
#209		{L:101}
(*) UNDEF
005BD7C4  F8DF 71DC		ldr r7, [pc, #+476] ; 0x20410F84
005BD7C8  7838     		ldrb r0, [r7]

#210		{L:101}
(-) BOOL
005BD7CA  2800     		cmp r0, #0
005BD7CC  D006     		beq #12 ; 0x005BD7DC


#211
#212
#213
#214
#215		{L:101}
(*) BOOL
005BD7D0  200A     		mov r0, #10 ; 10
005BD7D2  F8DF 71EC		ldr r7, [pc, #+492] ; 0x20411066
005BD7D6  7038     		strb r0, [r7]

#216
#217
#218
#219
(-) USINT
005BD7D8  E0A9     		b #338 ; 0x005BD92E


#220
#221
#222
#223
#224		{L:102}
(*) UNDEF
005BD7DC  F8DF 71E0		ldr r7, [pc, #+480] ; 0x20411066
005BD7E0  7838     		ldrb r0, [r7]

#225		{L:102}
(-) USINT
005BD7E2  1C40     		add r0, r0, #1

#226		{L:102}
(*) USINT
005BD7E4  F8DF 71D8		ldr r7, [pc, #+472] ; 0x20411066
005BD7E8  7038     		strb r0, [r7]

#227
(-) USINT
005BD7EA  E0A0     		b #320 ; 0x005BD92E


#228
#229
#230
#231
#232		{L:108}
(*) UNDEF
005BD7EE  F8DF 71B4		ldr r7, [pc, #+436] ; 0x20410F84
005BD7F2  7838     		ldrb r0, [r7]

#233		{L:108}
(*) BOOL
005BD7F4  2800     		cmp r0, #0
005BD7F6  BF08 2001		eqmov r0, #1
005BD7FA  BF18 2000		nemov r0, #0

#234		{L:108}
(-) BOOL
005BD7FE  2800     		cmp r0, #0
005BD800  D002     		beq #4 ; 0x005BD808


#235
#236
#237
#238
#239
#240
(-) BOOL
005BD804  E093     		b #294 ; 0x005BD92E


#241
#242
#243
#244
#245		{L:109}
(*) BOOL
005BD808  200A     		mov r0, #10 ; 10
005BD80A  F8DF 71B4		ldr r7, [pc, #+436] ; 0x20411066
005BD80E  7038     		strb r0, [r7]

#246
(-) USINT
005BD810  E08D     		b #282 ; 0x005BD92E


#247
#248
#249
#250		{L:117}
(*) USINT
005BD814  F8DF 01B4		ldr r0, [pc, #+436] ; 0x2041106C

#251		{L:117}
(*) DWORD
005BD818  F8DF 716C		ldr r7, [pc, #+364] ; 0x20410F68
005BD81C  6038     		str r0, [r7]

#252
#253
#254		{L:118}
(*) DWORD
005BD81E  2001     		mov r0, #1 ; 1
005BD820  F8DF 7140		ldr r7, [pc, #+320] ; 0x20410F47
005BD824  7038     		strb r0, [r7]

#255
#256
#257		{L:119}
(*) UNDEF
005BD826  F8DF 7198		ldr r7, [pc, #+408] ; 0x20411066
005BD82A  7838     		ldrb r0, [r7]

#258		{L:119}
(-) USINT
005BD82C  1C40     		add r0, r0, #1

#259		{L:119}
(*) USINT
005BD82E  F8DF 7190		ldr r7, [pc, #+400] ; 0x20411066
005BD832  7038     		strb r0, [r7]

#260
(-) USINT
005BD834  E07B     		b #246 ; 0x005BD92E


#261
#262
#263
#264		{L:125}
(*) USINT
005BD838  2000     		mov r0, #0 ; 0
005BD83A  F8DF 7128		ldr r7, [pc, #+296] ; 0x20410F47
005BD83E  7038     		strb r0, [r7]

#265
#266
#267
#268		{L:126}
(*) UNDEF
005BD840  F8DF 716C		ldr r7, [pc, #+364] ; 0x20410F87
005BD844  7838     		ldrb r0, [r7]

#269		{L:126}
(*) BOOL
005BD846  2800     		cmp r0, #0
005BD848  BF08 2001		eqmov r0, #1
005BD84C  BF18 2000		nemov r0, #0

#270		{L:126}
(-) BOOL
005BD850  2800     		cmp r0, #0
005BD852  D002     		beq #4 ; 0x005BD85A


#271
#272
#273
#274
#275
#276
(-) BOOL
005BD856  E06A     		b #212 ; 0x005BD92E


#277
#278
#279
#280
#281		{L:127}
(*) BOOL
005BD85A  2014     		mov r0, #20 ; 20
005BD85C  F8DF 7160		ldr r7, [pc, #+352] ; 0x20411066
005BD860  7038     		strb r0, [r7]

#282
(-) USINT
005BD862  E064     		b #200 ; 0x005BD92E


#283
#284
#285
#286
#287		{L:136}
(*) UNDEF
005BD866  F8DF 716C		ldr r7, [pc, #+364] ; 0x2041108E
005BD86A  7838     		ldrb r0, [r7]

#288		{L:136}
(*) BOOL
005BD86C  F8DF 7170		ldr r7, [pc, #+368] ; 0x20411094
005BD870  783F     		ldrb r7, [r7]
005BD872  42B8     		cmp r0, r7
005BD874  BF18 2000		nemov r0, #0
005BD878  BF08 2001		eqmov r0, #1

#289		{L:136}
(-) BOOL
005BD87C  2800     		cmp r0, #0
005BD87E  D002     		beq #4 ; 0x005BD886


#290
#291
#292
#293
#294
#295
(-) BOOL
005BD882  E054     		b #168 ; 0x005BD92E


#296
#297
#298
#299
#300		{L:137}
(*) BOOL
005BD886  F8DF 714C		ldr r7, [pc, #+332] ; 0x2041108E
005BD88A  7838     		ldrb r0, [r7]
005BD88C  F8DF 7150		ldr r7, [pc, #+336] ; 0x20411094
005BD890  7038     		strb r0, [r7]

#301
#302
#303		{L:141}
(*) BOOL
005BD892  F8DF 0138		ldr r0, [pc, #+312] ; 0x2041106C

#304		{L:141}
(*) DWORD
005BD896  F8DF 70F0		ldr r7, [pc, #+240] ; 0x20410F68
005BD89A  6038     		str r0, [r7]

#305
#306
#307
#308		{L:145}
(*) UNDEF
005BD89C  F8DF 7134		ldr r7, [pc, #+308] ; 0x2041108E
005BD8A0  7838     		ldrb r0, [r7]

#309		{L:145}
(*) BOOL
005BD8A2  2800     		cmp r0, #0
005BD8A4  BF08 2001		eqmov r0, #1
005BD8A8  BF18 2000		nemov r0, #0

#310		{L:145}
(-) BOOL
005BD8AC  2800     		cmp r0, #0
005BD8AE  D005     		beq #10 ; 0x005BD8BC


#311
#312
#313
#314
#315		{L:145}
(*) BOOL
005BD8B2  F8DF 0094		ldr r0, [pc, #+148] ; 0x5BA32C

#316		{L:145}
(*) DWORD
005BD8B6  F8DF 70D4		ldr r7, [pc, #+212] ; 0x20410F6C
005BD8BA  6038     		str r0, [r7]

#317
#318
#319
#320
#321
#322
#323		{L:146}
(*) UNDEF
005BD8BC  F8DF 7114		ldr r7, [pc, #+276] ; 0x2041108E
005BD8C0  7838     		ldrb r0, [r7]

#324		{L:146}
(-) BOOL
005BD8C2  2800     		cmp r0, #0
005BD8C4  D005     		beq #10 ; 0x005BD8D2


#325
#326
#327
#328
#329		{L:146}
(*) BOOL
005BD8C8  F8DF 0080		ldr r0, [pc, #+128] ; 0x5BA330

#330		{L:146}
(*) DWORD
005BD8CC  F8DF 70BC		ldr r7, [pc, #+188] ; 0x20410F6C
005BD8D0  6038     		str r0, [r7]

#331
#332
#333
#334
#335
#336		{L:150}
(*) UNDEF
005BD8D2  F8DF 70B8		ldr r7, [pc, #+184] ; 0x20410F6C
005BD8D6  6838     		ldr r0, [r7]

#337		{L:150}
(-) @USINT
005BD8D8  4600     		mov r0, r0
005BD8DA  F8DF 405C		ldr r4, [pc, #+92] ; 0x4909F1
005BD8DE  F044 0401		orr r4, r4, #1
005BD8E2  47A0     		blx r4

#338		{L:150}
(*) UDINT
005BD8E4  F8DF 70A8		ldr r7, [pc, #+168] ; 0x20410F70
005BD8E8  6038     		str r0, [r7]

#339
#340
#341		{L:151}
(*) UDINT
005BD8EA  2001     		mov r0, #1 ; 1
005BD8EC  F8DF 7070		ldr r7, [pc, #+112] ; 0x20410F46
005BD8F0  7038     		strb r0, [r7]

#342
#343
#344		{L:152}
(*) UNDEF
005BD8F2  F8DF 70CC		ldr r7, [pc, #+204] ; 0x20411066
005BD8F6  7838     		ldrb r0, [r7]

#345		{L:152}
(-) USINT
005BD8F8  1C40     		add r0, r0, #1

#346		{L:152}
(*) USINT
005BD8FA  F8DF 70C4		ldr r7, [pc, #+196] ; 0x20411066
005BD8FE  7038     		strb r0, [r7]

#347
(-) USINT
005BD900  E015     		b #42 ; 0x005BD92E


#348
#349
#350
#351		{L:158}
(*) USINT
005BD904  2000     		mov r0, #0 ; 0
005BD906  F8DF 7058		ldr r7, [pc, #+88] ; 0x20410F46
005BD90A  7038     		strb r0, [r7]

#352
#353
#354
#355		{L:159}
(*) UNDEF
005BD90C  F8DF 709C		ldr r7, [pc, #+156] ; 0x20410F86
005BD910  7838     		ldrb r0, [r7]

#356		{L:159}
(*) BOOL
005BD912  2800     		cmp r0, #0
005BD914  BF08 2001		eqmov r0, #1
005BD918  BF18 2000		nemov r0, #0

#357		{L:159}
(-) BOOL
005BD91C  2800     		cmp r0, #0
005BD91E  D002     		beq #4 ; 0x005BD926


#358
#359
#360
#361
#362
#363
(-) BOOL
005BD922  E004     		b #8 ; 0x005BD92E


#364
#365
#366
#367
#368		{L:160}
(*) BOOL
005BD926  2000     		mov r0, #0 ; 0
005BD928  F8DF 7094		ldr r7, [pc, #+148] ; 0x20411066
005BD92C  7038     		strb r0, [r7]

005BD92E  E8BD 4DF0		ldmia sp!, { r4, r5, r6, r7, r8, r10, fp, lr }

005BD932  4770     		bx lr

005BD934  004908DD		; 0x004908DD
005BD938  004909F1		; 0x004909F1
005BD93C  005BA308		; 0x005BA308
005BD940  005BA322		; 0x005BA322
005BD944  005BA324		; 0x005BA324
005BD948  005BA32C		; 0x005BA32C
005BD94C  005BA330		; 0x005BA330
005BD950  005BA358		; 0x005BA358
005BD954  20410E34		; 0x20410E34
005BD958  20410F44		; 0x20410F44
005BD95C  20410F45		; 0x20410F45
005BD960  20410F46		; 0x20410F46
005BD964  20410F47		; 0x20410F47
005BD968  20410F48		; 0x20410F48
005BD96C  20410F4C		; 0x20410F4C
005BD970  20410F50		; 0x20410F50
005BD974  20410F54		; 0x20410F54
005BD978  20410F58		; 0x20410F58
005BD97C  20410F5C		; 0x20410F5C
005BD980  20410F60		; 0x20410F60
005BD984  20410F64		; 0x20410F64
005BD988  20410F68		; 0x20410F68
005BD98C  20410F6C		; 0x20410F6C
005BD990  20410F70		; 0x20410F70
005BD994  20410F74		; 0x20410F74
005BD998  20410F78		; 0x20410F78
005BD99C  20410F7C		; 0x20410F7C
005BD9A0  20410F80		; 0x20410F80
005BD9A4  20410F84		; 0x20410F84
005BD9A8  20410F85		; 0x20410F85
005BD9AC  20410F86		; 0x20410F86
005BD9B0  20410F87		; 0x20410F87
005BD9B4  20410F88		; 0x20410F88
005BD9B8  20410FE4		; 0x20410FE4
005BD9BC  20411025		; 0x20411025
005BD9C0  20411066		; 0x20411066
005BD9C4  20411067		; 0x20411067
005BD9C8  20411068		; 0x20411068
005BD9CC  2041106C		; 0x2041106C
005BD9D0  2041108D		; 0x2041108D
005BD9D4  2041108E		; 0x2041108E
005BD9D8  2041108F		; 0x2041108F
005BD9DC  20411090		; 0x20411090
005BD9E0  20411094		; 0x20411094
005BD9E4  20412E51		; 0x20412E51

END_PROGRAM


**************************************************
	Target variable image generation
**************************************************


*** INPUT:
005BD9E8  F8DF 704C		ldr r7, [pc, #+76] ; 0x204145B1
005BD9EC  7838     		ldrb r0, [r7]
005BD9EE  F8DF 702C		ldr r7, [pc, #+44] ; 0x20411067
005BD9F2  7038     		strb r0, [r7]

005BD9F4  F8DF 703C		ldr r7, [pc, #+60] ; 0x204145B0
005BD9F8  7838     		ldrb r0, [r7]
005BD9FA  F8DF 7024		ldr r7, [pc, #+36] ; 0x2041108D
005BD9FE  7038     		strb r0, [r7]

005BDA00  F8DF 702C		ldr r7, [pc, #+44] ; 0x20414391
005BDA04  7838     		ldrb r0, [r7]
005BDA06  F8DF 7020		ldr r7, [pc, #+32] ; 0x2041108F
005BDA0A  7038     		strb r0, [r7]

005BDA0C  F8DF 701C		ldr r7, [pc, #+28] ; 0x20414390
005BDA10  7838     		ldrb r0, [r7]
005BDA12  F8DF 7010		ldr r7, [pc, #+16] ; 0x2041108E
005BDA16  7038     		strb r0, [r7]

005BDA18  4770     		bx lr

005BDA1C  20411067		; 0x20411067
005BDA20  2041108D		; 0x2041108D
005BDA24  2041108E		; 0x2041108E
005BDA28  2041108F		; 0x2041108F
005BDA2C  20414390		; 0x20414390
005BDA30  20414391		; 0x20414391
005BDA34  204145B0		; 0x204145B0
005BDA38  204145B1		; 0x204145B1


*** OUTPUT:
005BDA3C  F8DF 7018		ldr r7, [pc, #+24] ; 0x20411067
005BDA40  7838     		ldrb r0, [r7]
005BDA42  F8DF 7020		ldr r7, [pc, #+32] ; 0x204145B1
005BDA46  7038     		strb r0, [r7]

005BDA48  F8DF 7010		ldr r7, [pc, #+16] ; 0x2041108D
005BDA4C  7838     		ldrb r0, [r7]
005BDA4E  F8DF 7010		ldr r7, [pc, #+16] ; 0x204145B0
005BDA52  7038     		strb r0, [r7]

005BDA54  4770     		bx lr

005BDA58  20411067		; 0x20411067
005BDA5C  2041108D		; 0x2041108D
005BDA60  204145B0		; 0x204145B0
005BDA64  204145B1		; 0x204145B1



**************************************************
	Task Back init code
**************************************************

005BDA68  E92D 4DF0		stmdb sp!, { r4, r5, r6, r7, r8, r10, fp, lr }

005BDA6C  F8DF 702C		ldr r7, [pc, #+44] ; 0x2041106C
005BDA70  2349     		mov r3, #0x49
005BDA72  703B     		strb r3, [r7, #+0]
005BDA74  234F     		mov r3, #0x4F
005BDA76  707B     		strb r3, [r7, #+1]
005BDA78  2343     		mov r3, #0x43
005BDA7A  70BB     		strb r3, [r7, #+2]
005BDA7C  236F     		mov r3, #0x6F
005BDA7E  70FB     		strb r3, [r7, #+3]
005BDA80  236D     		mov r3, #0x6D
005BDA82  713B     		strb r3, [r7, #+4]
005BDA84  236D     		mov r3, #0x6D
005BDA86  717B     		strb r3, [r7, #+5]
005BDA88  2361     		mov r3, #0x61
005BDA8A  71BB     		strb r3, [r7, #+6]
005BDA8C  236E     		mov r3, #0x6E
005BDA8E  71FB     		strb r3, [r7, #+7]
005BDA90  2364     		mov r3, #0x64
005BDA92  723B     		strb r3, [r7, #+8]

005BDA94  E8BD 4DF0		ldmia sp!, { r4, r5, r6, r7, r8, r10, fp, lr }

005BDA98  4770     		bx lr

005BDA9C  2041106C		; 0x2041106C


**************************************************
VIRTUAL TABLES:

--------------------------------------------------------
VIRTUAL TABLES INDEXES
--------------------------------------------------------


**************************************************
	Global init code
**************************************************

005BDAB0  E92D 4DF0		stmdb sp!, { r4, r5, r6, r7, r8, r10, fp, lr }

005BDAB4  E8BD 4DF0		ldmia sp!, { r4, r5, r6, r7, r8, r10, fp, lr }

005BDAB8  4770     		bx lr



********************************************
MEMORY MAP
********************************************

Code area type:			main code
Start code area:		  5BA000h
End code area:			  5BDAC0h
Code size:			    3AC0h

Start local data area:		20410E28h
End local data area:		20411095h
Local data size:		     26Dh

Start retentive data area:	20410A3Ch
End retentive data area:	20410A3Ch
Retentive data size:		       0h

Start bit data area:		       0h
End bit data area:		       0h
Bit data size:			       0h



********************************************
CODE ID:                                1826AF22
DEBUG MEMO ID:                          00006A12
FULL MEMO ID:                           0000C2D2
********************************************
